=======================================================================================
편명                                기체                  관제시스템 기체번호 출발지   도착지   IATA  
=======================================================================================
ID7162                             A320                 ADSB   PK-LAJ KUL    CGK    ID     
JJ3251                             A320                 ADSB   PR-MYQ CGH    IGU    JJ     
                                   E190                 ADSB   PR-AZB                      
BA4477                             E170                 MLAT   G-LCYG LCY    RTM    CJ     
YE214                              B734                 ADSB   UR-COI TBS    ODS    YE     
F91679                             A320                 ASDI          MCO    LAS    F9     
QR290                              A320                 ADSB   A7-AHR PRG    DOH    QR     
P04                                EC35                 MLAT   G-CPAO                      
QF16                               B744                 ESTI   VH-OJU LAX    BNE    QF     
BLOCKED                            GLF5                 ADSB   BLOCKED                     
G31447                             B738                 ADSB   PR-GXX BSB    CGH    G3     
LH2528                             A321                 ADSB   D-AIDT MUC    DME    LH     
QK1                                DH8A                 ASDI   C-FGRM YGK    YYZ    QK     
TO3431                             B738                 ADSB   F-GZHY LIS    ORY    TO     
AA8                                B772                 ADSB   N770AN HNL    DFW    AA     
AS132                              B739                 ADSB   N251AK FAI    SEA    AS     
FR1105                             B738                 ADSB   EI-DCJ SXF    INI    FR     
D8124                              B738                 ADSB   EI-FVK HEL    RVN    D8     
AA186                              B788                 ASDI   N806AA PEK    ORD    AA     
SU2501                             A321                 ADSB   VP-BEG MAD    SVO    SU     
J9176                              A320                 ADSB   LZ-BHG KWI    DXB    J9     
BA1307                             A320                 ADSB   G-EUYG ABZ    LHR    BA     
UT486                              B735                 ADSB   VQ-BJQ KUF    VKO    UT     
S754                               A319                 ADSB   VQ-BQW SVX    DME    S7     
FX1438                             MD11                 ADSB   N605FE MEM    ONT    FX     
WY105                              A333                 ADSB   A4O-DB MCT    MAN    WY     
QG722                              A320                 ADSB   PK-GLG CGK    SUB    QG     
FR4977                             B738                 ADSB   EI-EBN BDS    STN    FR     
AZ77                               A320                 ADSB   EI-EIC BCN    FCO    AZ     
DE68                               B753                 ESTI   D-ABOL DUS    HRG    DE     
VN578                              A321                 ADSB   VN-A325HAN    TPE    VN     
BA235                              A321                 ADSB   G-MEDJ LHR    DME    BA     
9W538                              B738                 ESTI   VT-JBB BOM    DXB    9W     
PS5011                             B739                 ESTI   UR-PSL KBP    SSH    PS     
WS1103                             B738                 ADSB   C-GWSA LAX    YYZ    WS     
BA268                              A388                 ASDI   G-XLEB LAX    LHR    BA     
TK2692                             A321                 ADSB   TC-JML IST    MSR    TK     
KL1613                             B737                 ADSB   PH-BGG AMS    IST    KL     
KA993                              A333                 ESTI   B-HYF  PEK    HKG    KA     
OZ761                              A333                 ADSB   HL7736 ICN    CGK    OZ     
B61986                             A320                 ASDI   N571JB PIT    BOS    B6     
MU5006                             B77W                 ADSB   B-7882 TPE    PVG    MU     
MT1474                             A321                 ESTI   G-TCDG BHX    SID    MT     
WN314                              B737                 MLAT   N248WN BNA    MCO    WN     
SPORT                              PC12                 ADSB   SP-ORT                      
SV1806                             A320                 ADSB   HZ-AS41GIZ    RUH    SV     
UA1953                             B737                 ASDI          JAX    IAH    UA     
AS1048                                                  OCEA          OGG    SFO    AS     
CA987                              B77W                 ESTI   B-2038 PEK    LAX    CA     
CI621                              B738                 ADSB   B-18655TPE    HKG    CI     
S7889                              A320                 ADSB   VP-BCS DME    INN    S7     
RO302                              B733                 ADSB   YR-BGB FRA    OTP    RO     
AA45                               B763                 OCEA   N385AM CDG    JFK    AA     
DE198                              B763                 ADSB   D-ABUS FRA    VRA    DE     
FR4006                             B738                 ADSB   EI-DLV ALC    MAN    FR     
KL1958                             B737                 ADSB   PH-BGR ZRH    AMS    KL     
CX35                               B744                 ADSB   B-LIF  KIX    ICN    CX     
GA857                              A333                 ESTI   PK-GPV HKG    DPS    GA     
US4837                             E145                 MLAT   N636AE PHF    PHL    US     
MU587                              B77W                 ESTI   B-2020 PVG    JFK    MU     
NH299                              B738                 ADSB   JA52AN HND    TTJ    NH     
WY348                              B738                 ESTI   A4O-BR ISB    MCT    WY     
QG637                              A320                 ADSB   PK-GLX BPN    SUB    QG     
HV321                              B738                 ADSB   PH-HSB AMS    ADB    HV     
N346FJ                             F2TH                 ADSB   N346FJ                      
CA183                              A321                 ADSB   B-6596 PEK    HND    CA     
OS853                              A319                 ADSB   OE-LDC VIE    AMM    OS     
N46602                             A321                 ADSB   VQ-BOE AQJ    SVO    N4     
LY2652                             B738                 ADSB   4X-EKM KBP    TLV    LY     
AC34                               B77L                 OCEA   C-FIVK SYD    YVR    AC     
A34209                             A320                 ADSB   SX-DVU SXF    HER    A3     
CX312                              A333                 ESTI   B-LAL  HKG    PEK    CX     
6E914                              A320                 ADSB   VT-IGH IXJ    JAI    6E     
VY6333                             A320                 ADSB   EC-KHN MXP    BCN    VY     
TW204                              B738                 ADSB   HL8095 NRT    ICN    TW     
U22522                             A319                 ADSB   G-EZMK SCQ    MXP    U2     
BA193                              B744                 ADSB   G-CIVF LHR    DFW    BA     
FR2008                             B738                 ADSB   EI-EVE VDA    BGY    FR     
UA929                              B763                 ESTI   N641UA LHR    ORD    UA     
B651                               A321                 ADSB   N955JB BOS    MCO    B6     
HFM431P                            A343                 ADSB   9H-TQM                      
CZ6371                             B738                 ADSB   B-5768 KWE    SZX    CZ     
TK1725                             A321                 ADSB   TC-JSV IST    TXL    TK     
IG3254                             B763                 ESTI   EC-LZO MBA    MXP    IG     
MU736                              B77W                 ADSB   B-7347 SYD    PVG    MU     
B61432                             E190                 MLAT   N328JB LGA    BOS    B6     
DD8319                             B738                 ADSB   HS-DBO CNX    DMK    DD     
AD2441                             AT76                 ADSB   PR-AKB RIA    POA    AD     
LO282                              B38M                 ADSB   SP-LVB LHR    WAW    LO     
NAX8LJ                             B738                 ADSB   LN-DYC OSL    VNO    DY     
9S524                              B734                 ASDI          CVG    STL    9S     
KU413                              B77W                 ADSB   9K-AOH KWI    BKK    KU     
JT925                              B739                 ADSB   PK-LGW DPS    SOC    JT     
A334                               A321                 ADSB   SX-DVZ FRA    SKG    A3     
DL670                              A319                 MLAT   N337NB PVD    DTW    DL     
JT961                              B738                 ADSB   PK-LJY BDO    KNO    JT     
H2802                              A320                 ESTI   LY-VEI SCL    LIM    H2     
PR469                              A333                 ADSB   RP-C8762ICN    MNL    PR     
DEHAB                              P28A                 ADSB   D-EHAB                      
YV6073                             E170                 ADSB   N85358 YYZ    IAH    YV     
HU7869                             B738                 ADSB   B-5581 XIY    SZX    HU     
                                   E195                 ADSB   PR-AXS                      
E4520                              B738                 ADSB   SP-ENG ALC    ARN    E4     
EI822                              A320                 ADSB   EI-DEC ORK    CDG    EI     
HLK                                EC55                 ADSB   HB-ZOL                      
3K591                              A320                 ADSB   9V-JSQ SIN    PNH    3K     
FX2                                B77L                 ADSB   N869FD MEM    STN    FX     
D85525                             B738                 ADSB   EI-FJE OSL    BCN    D8     
B62279                             E190                 ADSB   N294JB BOS    EWR    B6     
LH2544                             A320                 ADSB   D-AIUT MUC    KBP    LH     
CX91                               B748                 ADSB   B-LJC  ATL    ANC    CX     
                                   AT43                 ADSB   6V-AFW                      
U67019                             A321                 ADSB   VQ-BCE DME    VDA    U6     
KZ49                               B748                 ADSB   JA18KZ MXP    NRT    KZ     
THY98R                             A320                 ADSB   TC-JUE IST    KSY    TK     
CX797                              A333                 ADSB   B-LAF  HKG    CGK    CX     
UP335                              AT76                 ASDI          NAS    MHH    UP     
O66200                             A320                 ADSB   PR-OCV GIG    SSA    O6     
KL1425                             E190                 MLAT   PH-EZX AMS    BHX    KL     
EV4095                             E145                 ADSB   N11535 CHS    EWR    EV     
SU1124                             A321                 ADSB   VP-BAZ SVO    AER    SU     
JW135                              A320                 ESTI   JA09VA NRT    KHH    JW     
Y7515                              B738                 ADSB   VQ-BPM OVB    SYX    Y7     
B78920                             AT76                 ADSB   B-17003KNH    KHH    B7     
N340LH                             C340                 ASDI   N340LH KFXE   KTPF          
IB1201                             A320                 ADSB   EC-IEF BCN    MAD    IB     
RW3442                             E170                 ADSB   N654RW MAF    IAH    RW     
JJ3524                             A320                 ADSB   PR-MHA GRU    FOR    JJ     
AY1392                             A320                 ADSB   OH-LXF DUS    HEL    AY     
D8277                              B738                 ADSB   EI-FVL NCE    CPH    D8     
TK2683                             B738                 ADSB   TC-JFU BAL    IST    TK     
JL3118                             B738                 ADSB   JA331J CTS    NGO    JL     
G31281                             B737                 ADSB   PR-GEJ NVT    CGH    G3     
G31555                             B738                 ADSB   PR-GUC REC    CGH    G3     
LO8353                             AT76                 ADSB   ES-ATA TLL    VNO    LO     
TP1823                             A320                 ESTI   CS-TMW LIS    TER    TP     
WN1307                             B738                 ADSB   N8643A RDU    MDW    WN     
DL1163                             MD88                 MLAT   N959DL CAK    ATL    DL     
ZE231                              B738                 ADSB   HL8289 GMP    CJU    ZE     
DE254                              B763                 ADSB   D-ABUM BGI    FRA    DE     
MF855                              B738                 ADSB   B-5792 FOC    SIN    MF     
BA450                              A320                 ADSB   G-EUUP LHR    PMI    BA     
SJ86                               B738                 ADSB   PK-CMU CGK    TKG    SJ     
J9787                              A320                 ADSB   9K-CAL RUH    KWI    J9     
CHI01                              S92                  ASDI          YYT    KEE           
ISUEM                              EC45                 ADSB   I-SUEM                      
                                   E195                 ADSB   PR-AYU                      
FV6618                             A319                 ADSB   VQ-BAT LCA    LED    FV     
BA1482                             A320                 ADSB   G-EUUG LHR    GLA    BA     
U28164                             A319                 ADSB   G-EZNM LEI    LGW    U2     
U25652                             A320                 ADSB   ES-SAO BUD    TXL    U2     
B6198                              A320                 ADSB   N519JB MCO    LGA    B6     
TK1408                             B739                 ESTI   TC-JYN VNO    IST    TK     
WN1193                             B737                 MLAT   N915WN LGA    MDW    WN     
EW9069                             DH8D                 ADSB   D-ABQP NUE    DUS    EW     
MN235                              B738                 ADSB   ZS-ZWS               MN     
SN3713                             A319                 ADSB   OO-SSK BRU    BIO    SN     
KE37                               B77W                 ESTI   HL8008 ICN    ORD    KE     
VS42                               A346                 ESTI   G-VBUG SFO    LHR    VS     
W64325                             A321                 ADSB   HA-LXG SOF    EIN    W6     
BA139                              B772                 ADSB   G-YMMO LHR    BOM    BA     
LY2372                             B738                 ADSB   4X-EKT SXF    TLV    LY     
EY58                               A332                 ADSB   A6-EYH BRU    AUH    EY     
ZH9566                             B738                 ADSB   B-5619               ZH     
U22098                             A320                 ADSB   G-EZTC OPO    LTN    U2     
LH490                              B744                 ESTI   D-ABVY FRA    SEA    LH     
DP194                              B738                 ADSB   VP-BPL NAL    VKO    DP     
BK2964                             B739                 ADSB   B-1420 SYX    TSN    BK     
SC4713                             B738                 ESTI   B-5782 TAO    CTU    SC     
FR9429                             B738                 ADSB   EI-EFX BGY    DUB    FR     
UA1005                             B752                 ADSB   N17139 LIM    EWR    UA     
AA1264                             B738                 ADSB   N342PM ORD    DFW    AA     
RPC8960                            RJ1H                 ADSB   RP-C8960                     
TK1588                             A333                 ADSB   TC-LOE FRA    IST    TK     
AZ896                              A320                 ESTI   EI-DTD FCO    CAI    AZ     
SU1486                             B738                 ESTI   VP-BNP SVO    KJA    SU     
N229AR                             GLF4                 ADSB   N229AR                      
FX53                               B763                 ESTI   N109FE MEM    TLC    FX     
FR3107                             B738                 ADSB   EI-FRD FKB    LIS    FR     
HY668                              A320                 ADSB   UK32018OVB    TAS    HY     
SG169                              B738                 ADSB   TC-TJT GAU    DEL    SG     
HX612                              A332                 ADSB   B-LNC  HKG    KIX    HX     
TP1101                             AT76                 ADSB   CS-DJC SVQ    LIS    TP     
TK2829                             B738                 ADSB   TC-JZG TZX    IST    TK     
IB3148                             A320                 ADSB   EC-IZR MAD    PRG    IB     
CZ6834                             A320                 ADSB   B-6911 DLC    SZX    CZ     
AF178                              A388                 ADSB   F-HPJA CDG    MEX    AF     
BM1753                             E145                 MLAT   G-RJXB MUC    NRK    BM     
OZ235                              B772                 ASDI   HL8254 ORD    ICN    OZ     
BA8715                             E190                 MLAT   G-LCYV EDI    LCY    CJ     
DAL1533                            MD90                 ADSB   N962DN SRQ    ATL    DL     
IB8915                             CRJX                 ADSB   EC-MNQ MRS    MAD    YW     
AA18                               A321                 ADSB   N115NN SFO    JFK    AA     
IT505                              A320                 ADSB   B-50016TPE    DMK    IT     
JL99                               B763                 ESTI   JA654J HND    TSA    JL     
RW6049                             E170                 ASDI   N872RW BOS    LGA    RW     
KA734                              A333                 ESTI   B-LBI  KUL    HKG    KA     
9C8533                             A320                 ADSB   B-6902 PVG    PNH    9C     
TK1504                             B738                 ADSB   TC-JVT NUE    IST    TK     
LH8402                             B77L                 ESTI   D-ALFB FRA    PVG    LH     
6E439                              A320                 ADSB   VT-IHD COK    BOM    6E     
AA2661                             A321                 ADSB   N909AM SEA    DFW    AA     
UA1104                             B738                 ASDI   N33286 ANC    DEN    UA     
AF566                              B77W                 ADSB   F-GZNC CDG    BEY    AF     
EY224                              A321                 ADSB   A6-AEB AUH    DEL    EY     
LX1884                             F100                 ADSB   HB-JVE ZRH    OTP    LX     
CI7                                B77W                 OCEA   B-18051LAX    TPE    CI     
ESW450                             GLF4                 ADSB   4K-LAR                      
MRA697                             C208                 ADSB   N9505B MDT    AVP           
AK5871                             A320                 ADSB   9M-AQY SBW    KUL    AK     
FX77                               MD11                 ADSB   N609FE SYD    CAN    FX     
FV6642                             A319                 ADSB   VP-BWG SXF    LED    FV     
G8138                              A20N                 ADSB   VT-WGM IXR    DEL    G8     
EK762                              B77W                 ADSB   A6-EBR JNB    DXB    EK     
FR7257                             B738                 ADSB   EI-FIP MAD    DUB    FR     
KE481                              A332                 ESTI   HL8212 ICN    DEL    KE     
SU2588                             B738                 ADSB   VP-BRF SVO    LGW    SU     
FR4054                             B738                 ADSB   EI-DWE WMI    EMA    FR     
JME419M                            FA8X                 ADSB   CS-DSF                      
UA499                              B738                 ADSB   N77530 BUF    EWR    UA     
IB3141                             A320                 ADSB   EC-LVD DUS    MAD    IB     
WN349                              B737                 MLAT   N951WN DCA    BNA    WN     
9W731                              B737                 ADSB   VT-JGX PAT    DEL    9W     
CA905                              B738                 ADSB   B-1527 PEK    RGN    CA     
GB565                              B763                 ADSB   N220CY CVG    MCO    GB     
CA995                              B77W                 ESTI   B-2032 PEK    IAH    CA     
B8137                              GLF5                 ADSB   B-8137                      
NH474                              B772                 ADSB   JA705A OKA    HND    NH     
QK829                              DH8D                 ADSB   C-GSJZ YYT    YYR    QK     
FV6604                             A319                 ADSB   VP-BIQ VIE    LED    FV     
AA2559                             B738                 ADSB   N961NN PHL    ORD    AA     
SK556                              B738                 ADSB   LN-RGE AMS    ARN    SK     
FX1419                             MD11                 ADSB   N582FE MEM    OAK    FX     
                                   C172                 ADSB   VH-YGA                      
CA4375                             A332                 ADSB   B-6072 CTU    SYX    CA     
ZX7358                             CRJ2                 ASDI          CVG    YYZ    ZX     
EXM18                              DA42                 MLAT   G-HANG                      
WS1883                                                  OCEA          KOA    YVR    WS     
FX1493                             B752                 ADSB   N986FD MEM    RST    FX     
CZ6995                             B738                 ADSB   B-5760 URC    SHA    CZ     
BXR494                             C402                 ADSB   N5849C KVNY   KHWD          
WN502                              B737                 ASDI   N756SA ISP    BWI    WN     
FR9431                             B738                 ADSB   EI-ENI CIA    DUB    FR     
SU1008                             A320                 ADSB   VP-BEO SVO    KGD    SU     
MQ3629                             E170                 ADSB   N233NN IND    ORD    MQ     
LH802                              A320                 ADSB   D-AIPR FRA    ARN    LH     
RW3546                             E170                 ADSB   N744YX IND    ORD    RW     
ZW3797                             CRJ2                 MLAT   N456ZW CMH    IAD    ZW     
MIGWT                              GLEX                 ADSB   M-ACBU                      
QF96                               B789                 OCEA   VH-ZNA LAX    MEL    QF     
CA179                              A333                 ESTI   B-5912 PEK    MNL    CA     
QR439                              A320                 ADSB   A7-ADG ADA    DOH    QR     
RU402                              B744                 ADSB   VP-BIM DFW    AMS    RU     
IB3110                             A319                 ADSB   EC-KUB MAD    LIS    IB     
                                   A320                 ADSB   B-1032                      
AY42                               A359                 ADSB   OH-LWI ICN    HEL    AY     
US5070                             CRJ7                 ADSB   N537EA               US     
SU321                              A333                 ESTI   VQ-BQX MLE    SVO    SU     
GA818                              B738                 ADSB   PK-GFR CGK    KUL    GA     
8L9875                             B738                 ADSB   B-5409 KMG    XMN    8L     
                                   B738                 ADSB   TC-IZE                      
GA191                              B738                 ADSB   PK-GFS KNO    CGK    GA     
EK357                              B77W                 ESTI   A6-ENU CGK    DXB    EK     
KK6007                             A319                 ADSB   TC-ATD IST    CDG    KK     
BA276                              B788                 ADSB   G-ZBJE HYD    LHR    BA     
NH805                              B788                 ESTI   JA815A NRT    BKK    NH     
AF368                              A332                 ESTI   F-GZCB CDG    CCS    AF     
QR778                              B77W                 ESTI   A7-BAQ MIA    DOH    QR     
CZ6581                             A320                 ADSB   B-6737 NKG    ZUH    CZ     
W68121                             A320                 ADSB   HA-LYF KUN    LTN    W6     
G9119                              A320                 ADSB   A6-AOL SHJ    MCT    G9     
9W234                              B77W                 ADSB   VT-JEU AMS    YYZ    9W     
CX135                              A359                 ADSB   B-LRJ  HKG    MEL    CX     
IW1817                             AT76                 ADSB   PK-WGY JOG    SUB    IW     
CGAGE                              C441                 ADSB   CGAGE  YYZ    CYRC          
U62733                             A321                 ESTI   VP-BBH LED    OSS    U6     
BA676                              A320                 ADSB   G-EUUD LHR    IST    BA     
MU589                              B77W                 OCEA   B-2021 PVG    SFO    MU     
PR736                              A320                 ADSB   RP-C8620MNL    BKK    PR     
AD2770                             E195                 ESTI   PR-AUE CWB    REC    AD     
TK1411                             B737                 ADSB   TC-JKO IST    CZL    TK     
EI3842                             AT76                 ADSB   EI-FAV ORK    BRS    RE     
KL686                              B744                 ESTI   PH-BFU MEX    AMS    KL     
U21806                             A320                 ADSB   G-EZWT KEF    MAN    U2     
HBAL096                            BALL                 ADSB   N/A                         
6E6468                             A320                 ADSB   VT-IFA HYD    DEL    6E     
SN2314                             A319                 ADSB   OO-SSF GOT    BRU    SN     
AH1061                             B738                 ADSB   7T-VKL ORY    ORN    AH     
PC8390                             B738                 ADSB   TC-CPU ESB    VAN    PC     
PRCCE                              B429                 ADSB   PR-CCE                      
JT787                              B739                 ADSB   PK-LGO UPG    SUB    JT     
WY812                              B789                 ESTI   A4O-SC BKK    MCT    WY     
VS29                               A333                 ADSB   G-VKSS LGW    BGI    VS     
5J806                              A333                 ADSB   RP-C3347SIN    MNL    5J     
AT930                              B737                 ADSB   CN-RNV CMN    GVA    AT     
CK205                              B77L                 ADSB   B-2079 PVG    AMS    CK     
U25594                             A320                 ADSB   G-EZTH STR    TXL    U2     
BA850                              A320                 ADSB   G-EUYR LHR    WAW    BA     
CX711                              B77W                 ADSB   B-KQS  HKG    SIN    CX     
WN455                              B738                 ADSB   N8548P BWI    LAS    WN     
SK4787                             B738                 ADSB   LN-RCX OSL    KEF    SK     
CFE6ZP                             E190                 MLAT   G-LCYW GLA    ALC    CJ     
DL1207                             B738                 ASDI          FAR    MSP    DL     
BA175                              B744                 OCEA   G-BYGE LHR    JFK    BA     
FZ904                              B738                 ADSB   A6-FEK KUF    DXB    FZ     
LY5                                B772                 ADSB   4X-ECA TLV    LAX    LY     
KE284                              B748                 ADSB   HL7629 YYZ    ANC    KE     
AC4                                B789                 ESTI   C-FRSO NRT    YVR    AC     
GH164                              B738                 ADSB   VQ-BKW SIP    DME    GH     
HV735                              B738                 ADSB   PH-HXJ AMS    KAO    HV     
AV98                               B788                 ESTI   N782AV SCL    BOG    AV     
SU2211                             A320                 ADSB   VP-BFE ARN    SVO    SU     
BYA228                             E120                 ASDI          YHM    BUF           
NH109                              B77W                 ADSB   JA785A JFK    HND    NH     
QK631                              CRJ9                 ASDI          YHZ    YOW    QK     
AS871                                                   OCEA          HNL    ANC    AS     
LH440                              A388                 ESTI   D-AIMG FRA    IAH    LH     
QK674                              DH8A                 ASDI          YYB    YYZ    QK     
BA36                               B788                 ADSB   G-ZBJI MAA    LHR    BA     
RW3545                             E170                 ASDI   N651RW SDF    EWR    RW     
EV4375                             E45X                 MLAT   N17169 ORF    EWR    EV     
U26784                             A319                 ADSB   G-EZFC KRK    BFS    U2     
AK714                              A20N                 ADSB   9M-AGS SIN    KUL    AK     
G32113                             B737                 ADSB   PR-VBX POA    GIG    G3     
G39371                             B738                 ADSB   PR-GTE REC    COR    G3     
DL891                              MD90                 ASDI          MIA    ATL    DL     
LH2416                             A320                 ADSB   D-AIUZ MUC    ARN    LH     
B2865                              E195                 ADSB   EW-400POMSQ    CDG    B2     
K4797                              B763                 ASDI          CVG    ORD    K4     
WN1923                             B737                 ASDI          MDW    TPA    WN     
FV5695                             B738                 ADSB   VP-BOA SVX    PED    FV     
SK1647                             AT76                 ADSB   ES-ATB CPH    HAM    SK     
CI840                              B738                 ADSB   B-18660BKK    KHH    CI     
IB6365                             A332                 ADSB   EC-MNL MAD    PTY    IB     
VPCSN                              A319                 ADSB   VP-CSN                      
AC833                              B788                 ESTI   C-GHPX BRU    YUL    AC     
KC914                              A320                 ADSB   P4-KBA IST    ALA    KC     
EK225                              A388                 ESTI   A6-EOF DXB    SFO    EK     
QG690                              A320                 ADSB   PK-GLF CGK    DPS    QG     
OK480                              B737                 ADSB   OK-SWT PRG    HEL    OK     
GA982                              B77W                 ESTI   PK-GIH CGK    JED    GA     
IW1272                             AT76                 ADSB   PK-WHH BTH    BKS    IW     
5X504                              A306                 ADSB   N136UP CID    DSM    5X     
WR3441                             DH8D                 ADSB   C-FSWE YQM    YYZ    WR     
MU2309                             A319                 ADSB   B-6217 PVG    XNN    MU     
PR492                              A321                 ADSB   RP-C9926CRK    ICN    PR     
D85409                             B738                 ADSB   EI-FHX MUC    ALC    D8     
SQ32                               A359                 OCEA   9V-SMF SIN    SFO    SQ     
VSB03                              BE20                 MLAT   M-CDZT                      
LA703                              B789                 ESTI   CC-BGJ GRU    SCL    LA     
JJ3333                             A321                 ADSB   PT-MXC GRU    CWB    JJ     
WN1062                             B737                 ADSB   N7840A ISP    TPA    WN     
NH270                              B763                 ADSB   JA605A FUK    HND    NH     
CA817                              B77W                 ESTI   B-2087 PEK    IAD    CA     
DL1605                             B737                 ADSB   N303DQ PHL    ATL    DL     
KL1158                             E190                 ADSB   PH-EZW GOT    AMS    KL     
FV6192                             A319                 ADSB   VP-BWJ KZN    VKO    FV     
WN1994                             B738                 ADSB   N8619F ATL    LGA    WN     
AH1077                             B736                 ADSB   7T-VJR TLS    ORN    AH     
B2868                              B735                 ADSB   EW-294PAAMS    MSQ    B2     
DL2830                             B738                 ADSB   N774DE CVG    ATL    DL     
OA113                              A320                 ADSB   SX-DVY SKG    ATH    OA     
D85001                             B738                 ADSB   EI-FJN LGW    AGP    D8     
MU5432                             B738                 ADSB   B-1321 CKG    SHA    MU     
QR653                              A333                 ADSB   A7-AEG KTM    DOH    QR     
MN6412                             B738                 ADSB   ZS-ZWH CPT    JNB    MN     
EK143                              B77W                 ADSB   A6-EBJ DXB    MAD    EK     
TR652                              A320                 ADSB   9V-TAR SIN    HKT    TR     
FV5740                             B738                 ADSB   VP-BOH PRG    VKO    FV     
NH955                              B763                 ADSB   JA623A NRT    PEK    NH     
WK212                              A320                 ADSB   HB-IJV ZRH    FUE    WK     
WN475                              B737                 ASDI   N221WN CMH    TPA    WN     
AK1792                             A320                 ADSB   9M-AHJ SIN    BKI    AK     
AC700                              A319                 ASDI          YYZ    LGA    AC     
XQ970                              B738                 ADSB   TC-SEN ADB    FRA    XQ     
JAF3YV                             B738                 ADSB   PH-TFA CRL    TNG    TB     
CA106                              B738                 ADSB   B-1946 HKG    DLC    CA     
SQ8                                B77W                 OCEA   9V-SWQ ICN    LAX    SQ     
UX15                               A333                 ADSB   EC-LXR MAD    SAP    UX     
KLM63J                             B737                 ADSB   PH-BGL AMS    HAM    KL     
TK2011                             B738                 ADSB   TC-JFM ASR    IST    TK     
ZE941                              B738                 ADSB   HL8058 PUS    BKI    ZE     
AK2138                             A320                 ESTI   9M-AHL BKI    WUH    AK     
SU1422                             A320                 ADSB   VQ-BSI SVO    CEK    SU     
AR1513                             B738                 ADSB   LV-GUC COR    AEP    AR     
ZM501                              EC45                 ADSB   ZM501                ZM     
KL896                              B772                 ADSB   PH-BQP PVG    AMS    KL     
UX1301                             B788                 ESTI   EC-MOM MAD    TLV    UX     
JT954                              B739                 ADSB   PK-LJT DPS    LOP    JT     
YT423                              AT75                 ADSB   9N-AMN KEP    KTM    YT     
VN612                              A321                 ADSB   VN-A606BKK    HAN    VN     
                                   C208                 ADSB   PR-JOH                      
TK283                              B738                 ADSB   TC-JVK IST    MSQ    TK     
NJE894G                            C56X                 ADSB   CS-DXF                      
5J632                              A320                 ADSB   RP-C3268DGT    MNL    5J     
U27180                             A319                 ADSB   G-EZFP AGP    LPL    U2     
RW4740                             E170                 MLAT   N110HQ DTW    PHL    RW     
CZ3706                             A320                 ADSB   B-6289 WUH    CAN    CZ     
TK168                              A333                 ADSB   TC-LNG SGN    HAN    TK     
SV446                              A333                 ESTI   HZ-AQK JNB    JED    SV     
2P2147                             A321                 ADSB   RP-C9927MNL    ILO    2P     
MS787                              B738                 ADSB   SU-GEK CAI    MUC    MS     
AA2685                             B738                 ADSB   N354PT MIA    DFW    AA     
KL755                              B772                 ADSB   PH-BQG GYE    AMS    KL     
ZX7402                             CRJ2                 ASDI          CLE    YYZ    ZX     
KLM69X                             E190                 ADSB   PH-EZR AMS    GVA    KL     
FR3039                             B738                 ADSB   EI-DPM BCN    PRG    FR     
BA75                               B744                 ADSB   G-CIVC LHR    LOS    BA     
AC825                              B763                 ADSB   C-GLCA AMS    YYZ    AC     
JDI90W                             C680                 ADSB   SP-EAR                      
AA354                              B738                 ADSB   N878NN PHL    MIA    AA     
FX1185                             B752                 ADSB   N997FD AFW    PDX    FX     
BA777                              A321                 ADSB   G-EUXH ARN    LHR    BA     
JT329                              B739                 ADSB   PK-LHH BDJ    CGK    JT     
UA1063                             B738                 MLAT   N12216 EWR    MEX    UA     
CSJ915                             C208                 ASDI          YUL    CAK           
QG23                               A320                 ADSB   PK-GLK KNO    CGK    QG     
IB2622                             A332                 ESTI   EC-MOY OAK    BCN    IB     
KLM76B                             B737                 ADSB   PH-BGD GVA    AMS    KL     
DE1030                             B753                 ADSB   D-ABON FRA    HRG    DE     
EI34                               A320                 ADSB   EI-DEE BHD    LHR    EI     
KL1870                             B737                 ADSB   PH-BGE STR    AMS    KL     
NH8520                             B763                 ADSB   JA8362 SIN    HKG    NH     
KL898                              B789                 ADSB   PH-BHL PEK    AMS    KL     
GA571                              B738                 ADSB   PK-GNS BPN    CGK    GA     
                                   AT75                 ADSB   PP-PTN                      
A81312                             SW4                  ASDI          BUF    ELM    A8     
AX4374                             E145                 MLAT   N607AE HPN    DCA    AX     
TK333                              B739                 ADSB   TC-JYA GYD    IST    TK     
RW4425                             E170                 ADSB   N410YX BGR    DCA    RW     
U6829                              A320                 ADSB   VQ-BFW AER    TLV    U6     
BAE102                             B733                 ADSB   G-JMCM                      
JT526                              B38M                 ADSB   PK-LQI CGK    BDJ    JT     
Y71021                             B733                 ADSB   VP-BKT DME    MRV    Y7     
AA2438                             B738                 ADSB   N860NN YUL    MIA    AA     
G32167                             B738                 ADSB   PR-GUB GIG    JPA    G3     
G32096                             B738                 ADSB   PR-GUU GIG    NAT    G3     
GAF421                             A400                 ADSB   54+15                       
IB6341                             A332                 ADSB   EC-MJT MAD    GUA    IB     
D7326                              A333                 ADSB   9M-XXJ KUL    CTU    D7     
UX7158                             E195                 ADSB   EC-LIN BIO    MAD    UX     
AA1379                             A321                 ADSB   N119NN LAX    BOS    AA     
UK899                              A320                 ADSB   VT-TTL DEL    HYD    UK     
3S392                              B77L                 ADSB   D-AALE LEJ    CVG    3S     
CFKPI                              PC12                 ASDI   CFKPI  YYC    YXE           
LH2166                             CRJ9                 MLAT   D-ACKF MUC    LEJ    LH     
TT421                              A320                 ESTI   VH-VNG MEL    PER    TT     
OD163                              B738                 ESTI   9M-LCC DAC    KUL    OD     
CZ434                              B77L                 ESTI   B-2027 ORD    PVG    CZ     
JJ4777                             A321                 ESTI   PT-MXH GRU    NAT    JJ     
KE795                              B739                 ADSB   HL8273 ICN    CTS    KE     
U28605                             A319                 ADSB   G-EZFH LGW    AGP    U2     
FD766                              A320                 ADSB   HS-ABB DMK    MFM    FD     
CA1766                             A320                 ESTI   B-6731 LHW    HGH    CA     
CX2044                             B744                 ADSB   B-LID  MAA    HKG    CX     
MU9706                             B737                 ADSB   B-5243 PEK    BSD    MU     
ZH9043                             A320                 ADSB   B-6835 CAN    PNH    ZH     
PC4730                             B738                 ADSB   TC-CPR SAW    AYT    PC     
N445DB                             GL5T                 OCEA   N445DB HND    BFI           
DUK8AMB                            LJ45                 ADSB   LX-EAA                      
B61248                             A321                 ADSB   N958JB LAS    JFK    B6     
8C531                              B752                 ADSB   N557CM CVG    TUL    8C     
O66317                             A320                 ADSB   PR-ONZ REC    GRU    O6     
MF866                              B738                 ADSB   B-6482 SIN    FOC    MF     
Y4859                              A320                 ADSB   N525VL JFK    MEX    Y4     
BLOCKED                            LJ35                 ASDI   BLOCKEDKFXE   MIA           
JL12                               B788                 ADSB   JA844J NRT    DFW    JL     
HV845                              B738                 ESTI   PH-HXC AMS    DSS    HV     
JL566                              B738                 ESTI   JA308J MMB    HND    JL     
MU9749                             B737                 ESTI   B-6142 DLU    SHA    MU     
NH971                              B788                 ADSB   JA878A HND    PVG    NH     
                                   A321                 ADSB   VN-A324                     
EW1801                             B738                 ADSB   D-ASXC TFS    MUC    EW     
UK969                              A320                 ADSB   VT-TTM GAU    DEL    UK     
FZ912                              B738                 ADSB   A6-FER VKO    DXB    FZ     
W62681                             A320                 ADSB   HA-LWA PRG    BGY    W6     
FR1005                             B738                 ADSB   EI-DLK STN    OTP    FR     
TK7266                             B738                 ADSB   TC-JFI SAW    ADA    TK     
TK7081                             B738                 ESTI   TC-SBZ VAN    ESB    TK     
ID7082                             A320                 ADSB   PK-LUT BTH    HLP    ID     
LO80                               B788                 ADSB   SP-LRB NRT    WAW    LO     
Y4400                              A20N                 ESTI   N529VL TIJ    BJX    Y4     
KL1666                             B739                 ADSB   PH-BXP BCN    AMS    KL     
IFA1977                            CL60                 MLAT   D-AFAC                      
D86472                             B738                 ADSB   EI-FHL TFS    CPH    D8     
FR2743                             B738                 ADSB   EI-EMK VNO    BCN    FR     
CZ473                              B77L                 ADSB   B-2080 ANC    LAX    CZ     
FR1724                             B738                 ADSB   EI-FTN EMA    KRK    FR     
5X1038                             B752                 ADSB   N443UP BDL    PVD    5X     
QR756                              B77W                 ADSB   A7-BEI ATL    DOH    QR     
SA49                               A319                 ADSB   ZS-SFG LVI    JNB    SA     
W64045                             A320                 ADSB   HA-LYD BEG    BVA    W6     
WN2102                             B737                 ASDI          TPA    LGA    WN     
AC36                               B788                 OCEA   C-GHQY BNE    YVR    AC     
AC42                               B789                 ESTI   C-FGHZ YYZ    DEL    AC     
RU497                              B748                 ADSB   VP-BBL SVO    PVG    RU     
MH133                              A333                 ADSB   9M-MTN KUL    AKL    MH     
AY992                              A321                 ADSB   OH-LZM KEF    HEL    AY     
EDV3677                            CRJ2                 MLAT   N8986B ORF    JFK           
JT100                              B38M                 ADSB   PK-LQM PKU    MED    JT     
YW8751                             CRJX                 ADSB   EC-MQQ NCE    MAD    YW     
                                   CRJ1                 MLAT   C-FWJF                      
FX1705                             B763                 ADSB   N149FE IND    OAK    FX     
NJE297W                            F2TH                 MLAT   CS-DLD                      
FZ723                              B738                 ADSB   A6-FDU DXB    ODS    FZ     
HU7469                             B738                 ADSB   B-6065 HGH    CKG    HU     
MT1002                             B753                 ESTI   G-JMAB LGW    ACE    MT     
AK5137                             A320                 ESTI   9M-AQH BKI    KUL    AK     
LH1856                             A321                 ADSB   D-AIRL MUC    MXP    LH     
LX1348                             E190                 ADSB   HB-JVP ZRH    WAW    LX     
UK778                              A320                 ADSB   VT-TTH CCU    DEL    UK     
QR702                              B77W                 ESTI   A7-BEP JFK    DOH    QR     
HY232                              B752                 ADSB   VP-BUJ FRA    TAS    HY     
N340LD                             E55P                 ADSB   N340LD FWA    KMQJ          
MQ3463                             CRJ7                 ASDI          OKC    ORD    MQ     
TT287                              A320                 ADSB   VH-VNH SYD    MEL    TT     
BLOCKED                            A343                 ADSB   BLOCKED                     
A3823                              A320                 ADSB   SX-DVX GVA    ATH    A3     
AA755                              A332                 ESTI   N285AY CDG    PHL    AA     
SK503                              A321                 ADSB   OY-KBL CPH    LHR    SK     
UT390                              B734                 ADSB   VQ-BIE KGD    VKO    UT     
IT2691                             A320                 ADSB   B-50005              IT     
4O2303                             A321                 ADSB   XA-GEO CUN    MEX    4O     
WN181                              B738                 ASDI   N8614M FLL    ATL    WN     
WN3394                             B737                 ADSB   N7865A PVD    FLL    WN     
SC8792                             B738                 ADSB   B-5118 YNZ    CKG    SC     
HO1146                             A320                 ADSB   B-6602 LCX    PVG    HO     
CX216                              A359                 ADSB   B-LRS  MAN    HKG    CX     
N635FT                             P28A                 ADSB   N635FT                      
ID6113                             A320                 ADSB   PK-LUM TKG    HLP    ID     
JJ3625                             A321                 ADSB   PT-XPI SSA    GIG    JJ     
UA2021                             A320                 MLAT   N448UA CLT    IAD    UA     
N1NP                               BE20                 ADSB   N1NP   LNK    CAK           
FR4613                             B738                 ADSB   EI-EBV AGP    HHN    FR     
3O114                              A320                 ADSB   CN-NML BRU    TNG    3O     
G37680                             B738                 ADSB   PR-GUY GRU    AEP    G3     
LH430                              B748                 ADSB   D-ABYU FRA    ORD    LH     
KZN9404                            CL60                 ADSB   RA-67216                     
N542LM                             LJ35                 ASDI   N542LM FAI    BFI           
SU2207                             A320                 ADSB   VQ-BCM HEL    SVO    SU     
SK925                              A343                 ADSB   OY-KBA CPH    IAD    SK     
AA69                               B772                 ADSB   N766AN MAD    MIA    AA     
T0964                              A332                 ESTI   N974AV EZE    LIM    T0     
KL1629                             E190                 ADSB   PH-EZM AMS    MXP    KL     
DK1367                             A321                 ADSB   G-TCDD LPA    VAA    DK     
9W69                               B738                 ADSB   VT-JGF BKK    BOM    9W     
HO1247                             A321                 ADSB   B-1001 SHA    CKG    HO     
G31204                             B737                 ADSB   PR-GEH CGH    POA    G3     
UK933                              A320                 ADSB   VT-TTB DEL    BOM    UK     
MF8582                             B738                 ADSB   B-6490 SHA    CKG    MF     
QR204                              B788                 ADSB   A7-BDA ATH    DOH    QR     
LH1406                             A319                 ADSB   D-AIBI FRA    BEG    LH     
EK216                              A388                 ADSB   A6-EEU LAX    DXB    EK     
AI216                              A321                 ADSB   VT-PPM KTM    DEL    AI     
TK1702                             B739                 ADSB   TC-JYD STR    IST    TK     
DJ474                              A332                 ADSB   VH-XFJ BNE    PER    DJ     
HU7726                             B738                 ADSB   B-5852 HRB    TSN    HU     
S7762                              A320                 ESTI   VP-BCP BKK    IKT    S7     
MF819                              B738                 ADSB   B-5388 XMN    MNL    MF     
FR2926                             B738                 ADSB   EI-DHG LIS    BRU    FR     
U21901                             A320                 ADSB   G-EZUG MAN    TFS    U2     
D85501                             B738                 ADSB   EI-FHY LGW    BCN    D8     
GJ8691                             A320                 ADSB   B-1676 HGH    CKG    GJ     
AA2143                             E190                 ASDI          BOS    LGA    AA     
B6583                              A320                 ADSB   N809JB JFK    MCO    B6     
BR27                               B77W                 OCEA   B-16733SFO    TPE    BR     
OESRI                              BALL                 ADSB   OE-SRI                      
VY3220                             A320                 ADSB   EC-MDZ BCN    TFS    VY     
AT650                              B738                 ADSB   CN-RNP OUD    ORY    AT     
DL823                              B712                 ASDI   N992AT CLT    ATL    DL     
TK9                                B77W                 ADSB   TC-JJH IST    LAX    TK     
MT1032                             A321                 ADSB   G-TCDJ LGW    BJL    MT     
JD5529                             A320                 ADSB   B-6952 HAK    PVG    JD     
BA245                              B772                 ADSB   G-YMME LHR    EZE    BA     
PC947                              B738                 ADSB   TC-AEP SAW    ZRH    PC     
MH360                              A333                 ESTI   9M-MTI KUL    PEK    MH     
FR7207                             B738                 ADSB   EI-FON PMI    CGN    FR     
5J142                              A320                 ADSB   RP-C3266MNL    HKG    5J     
FX4                                B77L                 ADSB   N884FD MEM    CGN    FX     
KL1563                             E190                 ADSB   PH-EZZ AMS    GOA    KL     
WS1853                                                  OCEA          OGG    YVR    WS     
E47083                             B738                 ADSB   SP-ENL WAW    HRG    E4     
QAJ540                             LJ55                 ADSB   D-CCGN                      
EDV3649                            CRJ9                 ASDI   N909XJ DCA    CVG           
MU569                              B77W                 ESTI   B-7349 PVG    CDG    MU     
QR915                              A359                 ESTI   A7-ALT ADL    DOH    QR     
ST3414                             B737                 ADSB   D-AGEN DRS    TFS    ST     
Y71031                             B738                 ADSB   VQ-BDZ DME    AER    Y7     
QR8670                             A332                 ADSB   A7-AFJ DOH    SKT    QR     
XJ607                              A333                 ADSB   HS-XTC NRT    DMK    XJ     
AA93                               B738                 ADSB   N346PR DCA    DFW    AA     
EK12                               A388                 ADSB   A6-EUC LGW    DXB    EK     
D83321                             B738                 ADSB   EI-GBI RIX    CPH    D8     
HU7931                             A333                 ADSB   B-1021 SZX    AKL    HU     
OR531                              B738                 ADSB   PH-TFC AMS    ACE    OR     
HBFWT                              PC12                 ADSB   HB-FWT                      
SK7                                A20N                 ADSB   SE-ROE LLA    ARN    SK     
SV144                              B77W                 ADSB   HZ-AK39CDG    RUH    SV     
FD3022                             A320                 ADSB   HS-ABV HKT    DMK    FD     
EK435                              A388                 ESTI   A6-EDY BNE    DXB    EK     
UA53                               B763                 ADSB   N648UA ZRH    IAD    UA     
0B4                                B738                 ADSB   YR-BMM LTN    OTP    0B     
DL296                              B77L                 ESTI   N705DN NRT    ATL    DL     
LY2365                             B739                 ADSB   4X-EHB TLV    BUD    LY     
VOC4061                            A319                 ADSB   N503VL                      
SU1123                             A321                 ADSB   VP-BEW AER    SVO    SU     
SU1321                             A320                 ADSB   VQ-BBC MMK    SVO    SU     
GA553                              B738                 ADSB   PK-GFE PKY    CGK    GA     
FR2336                             B738                 ADSB   EI-DAS STN    POZ    FR     
                                   CRJ9                 MLAT   N134EV                      
O66240                             A320                 ADSB   PR-OCD CWB    BSB    O6     
FR7222                             B738                 ADSB   EI-FIV VLC    SCQ    FR     
FR1825                             B738                 ADSB   EI-DWK MJV    EMA    FR     
QF767                              A332                 ESTI   VH-EBE BNE    PER    QF     
VPBYA                              B737                 ADSB   VP-BYA                      
JL333                              B772                 ADSB   JA772J HND    FUK    JL     
3U8411                             A320                 ADSB   B-1662 SYX    PVG    3U     
DY4313                             B738                 ADSB   LN-NIH ARN    ORY    DY     
FR4932                             B738                 ADSB   EI-DLJ PMO    BVA    FR     
VY1898                             A320                 ADSB   EC-MKM BCN    DUS    VY     
MT2614                             A332                 ADSB   G-MLJL LGW    GOI    MT     
AH1081                             B738                 ADSB   7T-VKC LYS    ORN    AH     
JT777                              B739                 ADSB   PK-LGT UPG    CGK    JT     
EY101                              A388                 ADSB   A6-APA AUH    JFK    EY     
U28902                             A320                 ADSB   G-EZWE GIB    LGW    U2     
GS7958                             A332                 ADSB   B-8596 AKL    CKG    GS     
LH400                              B748                 ADSB   D-ABYP FRA    JFK    LH     
TG673                              B77W                 ADSB   HS-TKX KIX    BKK    TG     
LX196                              A343                 ADSB   HB-JMI ZRH    PEK    LX     
QF9                                A388                 ADSB   VH-OQB DXB    LHR    QF     
BLOCKED                            HA4T                 ASDI   BLOCKEDOPF    BOS           
QK909                              DH8D                 ADSB   C-GXJZ YQB    YYZ    QK     
HY302                              B763                 ESTI   UK67004TLV    TAS    HY     
NH105                              B77W                 OCEA   JA788A LAX    HND    NH     
KL1082                             B738                 ADSB   PH-BXI MAN    AMS    KL     
B3695                              PA44                 ADSB   B-3695                      
O66233                             A319                 ADSB   PR-AVD BSB    SDU    O6     
FR8383                             B738                 ADSB   EI-EKI ALC    STN    FR     
DLH9U                              A320                 ADSB   D-AIQA LHR    FRA    LH     
NH8489                             B763                 ADSB   JA601F NRT    CAN    NH     
SU2462                             A320                 ADSB   VQ-BHN SVO    CDG    SU     
MS797                              B738                 ADSB   SU-GDD CAI    VIE    MS     
JJ3297                             A320                 ADSB   PR-MYX POA    GRU    JJ     
UA197                              B738                 ASDI   N37293 NRT    GUM    UA     
OZ793                              B744                 ADSB   HL7618 DME    STN    OZ     
NDL191                             B190                 ASDI   C-GXCA YQB    YWK           
DL2484                             A319                 ASDI   N324NB ALB    DTW    DL     
FX1583                             A306                 ADSB   N661FE MEM    ABQ    FX     
CX502                              B772                 ADSB   B-HNC  HKG    KIX    CX     
DI7408                             B789                 ADSB   G-CJGI SIN    LGW    DI     
US4796                             E145                 ASDI          YUL    PHL    US     
SS860                              A333                 ADSB   F-HZEN ORY    HAV    SS     
RB342                              A320                 ADSB   YK-AKE KWI    DAM    RB     
LH2474                             A320                 ADSB   D-AIUS MUC    LHR    LH     
BLOCKED                            B350                 ADSB   BLOCKED                     
B6371                              A320                 ADSB   N635JB LGA    FLL    B6     
T0920                              A321                 ESTI   N697AV GIG    LIM    T0     
AC7314                             CRJ2                 MLAT   C-GKEP RDU    YYZ    ZX     
RO372                              B737                 ADSB   YR-BGH BRU    OTP    RO     
U28914                             A319                 ADSB   G-EZFE FAO    LGW    U2     
UA889                              B77W                 ADSB   N2331U PEK    SFO    UA     
QTR7XB                             B77W                 ESTI   A7-BED CDG    DOH    QR     
6B235                              B738                 ADSB   SE-RFX HEL    LPA    6B     
NX861                              A320                 ADSB   B-MCB  NRT    MFM    NX     
AK1112                             A320                 ADSB   9M-AFU JHB    CGK    AK     
FX1161                             B752                 ADSB   N921FD SAT    LRD    FX     
OD1231                             AT76                 ADSB   9M-LMO KBR    SZB    OD     
5J672                              A320                 ADSB   RP-C3277MNL    PEK    5J     
BA833                              A319                 ADSB   G-EUPW DUB    LHR    BA     
SV841                              B789                 ESTI   HZ-ARG KUL    JED    SV     
SL104                              B738                 ADSB   HS-LUL DMK    SIN    SL     
CZ3048                             B737                 ADSB   B-5290 KUL    CAN    CZ     
DY1550                             B738                 ADSB   LN-NGU OSL    BUD    DY     
WN175                              B737                 ADSB   N953WN DCA    ATL    WN     
AV260                              A332                 ADSB   N280AV GIG    BOG    AV     
COU                                PA34                 ADSB   VH-COU                      
ZW3767                             CRJ2                 MLAT   N437AW MKE    ORD    ZW     
CZ8359                             A320                 ESTI   B-6303 CSX    HAN    CZ     
EW8003                             A320                 ADSB   D-ABNT STR    TXL    EW     
FX1468                             MD11                 ADSB   N521FE MEM    OAK    FX     
NH112                              B77W                 ADSB   JA736A HND    ORD    NH     
SK1042                             A20N                 ADSB   SE-DOZ ARN    KRN    SK     
RO391                              A318                 ADSB   YR-ASA OTP    LHR    RO     
LY382                              B739                 ADSB   4X-EHF MXP    TLV    LY     
UA840                              B789                 OCEA   N13954 SYD    LAX    UA     
KL1011                             B737                 ADSB   PH-BGO AMS    LHR    KL     
G8244                              A320                 ADSB   VT-GON BOM    BBI    G8     
OY325                              B772                 ADSB   N828AX AEX    0      OY     
BE355                              E75S                 MLAT   G-FBJG MAN    NQY    BE     
QG799                              A320                 ADSB   PK-GLR SRG    CGK    QG     
SU260                              A321                 ADSB   VQ-BHM CDG    SVO    SU     
QR10                               A388                 ADSB   A7-APD LHR    DOH    QR     
FR8163                             B738                 ADSB   EI-EBX AGP    STN    FR     
WE419                              A320                 ADSB   HS-TXK BKK    KUL    WE     
GA322                              B738                 ADSB   PK-GNV CGK    SUB    GA     
ET934                              B789                 ADSB   ET-AUP ABJ    ADD    ET     
N76DZ                              C25B                 ADSB   N76DZ  KOSU   SBN           
RW4521                             E75S                 ASDI          CMH    PHL    RW     
B61285                             E190                 MLAT   N334JB BOS    PIT    B6     
BR278                              A332                 ADSB   B-16310MNL    TPE    BR     
FV6195                             B738                 ADSB   VQ-BPX VKO    REN    FV     
SRQ6658                            AT76                 ADSB   RP-C7281                     
SU1491                             A320                 ADSB   VP-BZO SLY    SVO    SU     
UT679                              B735                 ADSB   VQ-BAE KUF    KGP    UT     
AY1472                             A319                 ADSB   OH-LVA VIE    HEL    AY     
TT493                              A320                 ADSB   VH-VNK CNS    BNE    TT     
FR1872                             B738                 ADSB   EI-FIK FMM    NYO    FR     
CI784                              A333                 ESTI   B-18309SGN    TPE    CI     
DL231                              B752                 ADSB   N718TW CDG    RDU    DL     
LX66                               A333                 ESTI   HB-JHD ZRH    MIA    LX     
MM28                               A320                 ESTI   JA805P TPE    KIX    MM     
LX1416                             A321                 ADSB   HB-IOK ZRH    BEG    LX     
6E856                              A20N                 ADSB   VT-ITZ GAU    CCU    6E     
DL2590                             B739                 ADSB   N842DN SEA    JFK    DL     
MF8307                             B738                 ADSB   B-1709 XMN    SYX    MF     
                                   CRJ7                 ADSB   JA10RJ                      
DL1795                             B752                 ASDI          GRR    DTW    DL     
UA1746                                                  OCEA          LIH    SFO    UA     
LH787                              A343                 ESTI   D-AIGS TAO    FRA    LH     
DY4241                             B738                 ADSB   LN-NIA ARN    LPA    DY     
3F304                              A320                 ADSB   TC-FHB MUC    AYT    3F     
SU2408                             B738                 ADSB   VP-BGI SVO    FCO    SU     
O66262                             A320                 ADSB   PR-OCW GIG    FLN    O6     
U22264                             A319                 ADSB   G-EZDY BCN    LTN    U2     
                                   E195                 ADSB   PR-AYH                      
JFA01B                             PC12                 MLAT   LX-NEW                      
TK824                              A332                 ADSB   TC-LNB IST    BEY    TK     
DL167                              B763                 ADSB   N193DN NRT    SIN    DL     
PROHL                              A139                 ADSB   PR-OHL                      
KM395                              A319                 ADSB   9H-AEJ AMS    MLA    KM     
AA1753                             A319                 ASDI          IAH    CLT    AA     
CZ6422                             B738                 ADSB   B-5697 CGO    KWE    CZ     
N850MF                             TBM8                 ASDI   N850MF MEM    CRW           
OO4279                             CRJ2                 MLAT   N935SW SCE    DTW    OO     
DL1640                             A321                 ASDI   N303DN DTW    ATL    DL     
QF128                              B744                 ESTI   VH-OEE HKG    SYD    QF     
7C2203                             B738                 ADSB   HL8297 ICN    BKK    7C     
N900HG                             F900                 MLAT   N900HG                      
FR6004                             B738                 ADSB   EI-ENZ BES    MRS    FR     
V5HCN                              A139                 ADSB   V5-HCN                      
I51728                             A320                 ADSB   VT-IXR BLR    JAI    I5     
CA4111                             A320                 ADSB   B-8490 CTU    PEK    CA     
MH1162                             B738                 ADSB   9M-MLM KUL    PEN    MH     
F91749                             A319                 ADSB   N941FR MCO    COS    F9     
FX26                               B77L                 ESTI   N859FD CGN    PVG    FX     
CX708                              A333                 ESTI   B-HLD  BKK    HKG    CX     
U28691                             A20N                 ADSB   G-UZHC LGW    LPA    U2     
UA917                              B77W                 OCEA   N2332U SFO    AKL    UA     
MQ3851                             CRJ7                 ASDI   N530EA COU    ORD    MQ     
KE6                                B77W                 ASDI   HL8275 LAS    ICN    KE     
                                   E145                 MLAT   N605KS                      
EDV3700                            CRJ9                 ASDI   N329PQ YUL    MSP           
AD8751                             A332                 ESTI   PR-AIZ LIS    VCP    AD     
FOC12                              PC12                 ADSB   HB-FWA                      
BE212                              DH8D                 MLAT   G-PRPF EDI    EXT    BE     
ZH9790                             A320                 ADSB   B-6939 KMG    JJN    ZH     
AF888                              A332                 ESTI   F-GZCE CDG    FIH    AF     
RV1671                             B763                 ADSB   C-FMXC MCO    YYZ    RV     
PC1527                             B738                 ADSB   TC-IZK ADB    STN    PC     
EY423                              B77W                 ESTI   A6-ETE MNL    AUH    EY     
WN1100                             B738                 ASDI          MSY    LAS    WN     
CZ625                              B738                 ADSB   B-1917 CAN    DPS    CZ     
EY90                               A320                 ADSB   A6-EIS ATH    AUH    EY     
TK617                              B77W                 ADSB   TC-JJY IST    CMN    TK     
5X918                              B763                 ADSB   N359UP SDF    ONT    5X     
WN2008                             B737                 ASDI          SJU    MCO    WN     
OO5261                             E170                 ADSB   N211SY DTW    ORD    OO     
TP1527                             A320                 ADSB   CS-TNV LIS    ACC    TP     
MU5832                             B738                 ESTI   B-7600 CGO    KMG    MU     
TK1752                             A321                 ADSB   TC-JSJ OSL    IST    TK     
GB552                              B763                 ADSB   N219CY CVG    JFK    GB     
RW4750                             E170                 MLAT   N131HQ LGA    DCA    RW     
EDV3319                            CRJ9                 ADSB   N336PQ BOS    MCI           
WY683                              B738                 ADSB   A4O-BE MCT    RUH    WY     
GJ8950                             A320                 ADSB   B-1673 KHN    XIY    GJ     
WN1497                             B737                 ASDI          CVG    MDW    WN     
D7221                              A333                 ADSB   9M-XXB SYD    KUL    D7     
AZ1715                             A319                 ADSB   EI-IMI LIN    CTA    AZ     
CX734                              B77W                 ADSB   B-KQT  SIN    HKG    CX     
FX37                               MD11                 ADSB   N525FE OAK    ANC    FX     
DUKE12                             C560                 ADSB   97-00102                     
JT396                              B739                 ADSB   PK-LGS CGK    KNO    JT     
SJ38                               B738                 ADSB   PK-CRH CGK    TNJ    SJ     
WN803                              B738                 ADSB   N8633A IAD    DEN    WN     
9W786                              B738                 ADSB   VT-JFF PNQ    DEL    9W     
BE553                              DH8D                 MLAT   G-ECOD GLA    EMA    BE     
G39321                             B738                 ADSB   PR-GGX               G3     
WY153                              B788                 ADSB   A4O-SA MCT    ZRH    WY     
EV5419                             CRJ7                 MLAT   N738EV LEX    LGA    EV     
BLOCKED                            CL30                 ADSB   BLOCKEDMIA    SFO           
DMDGF                              C42                  ADSB   D-MDGF                      
KE2710                             B773                 ADSB   HL7573 HND    GMP    KE     
W62359                             A321                 ADSB   HA-LXT BUD    NAP    W6     
H2501                              A319                 ADSB   CC-AHE SCL    EZE    H2     
S7582                              A20N                 ADSB   VQ-BCK BKK    OVB    S7     
OL856                              B738                 ESTI   I-NEOS SYD    APW    OL     
3Z7315                             B738                 ADSB   OK-TVX FUE    KTW    3Z     
GA245                              B738                 ADSB   PK-GMD SRG    CGK    GA     
U21918                             A320                 ADSB   G-EZTR ALC    MAN    U2     
BLOCKED                            FA50                 ADSB   BLOCKEDKFRG   MCN           
CZ3208                             B738                 ADSB   B-5149 XIY    CAN    CZ     
BLOCKED                            F2TH                 ADSB   BLOCKEDCLT    BDL           
UA15                               B763                 ESTI   N668UA LHR    EWR    UA     
AV9744                             A320                 ADSB   N763AV CLO    BOG    AV     
MK238                              A343                 ADSB   3B-NBE MRU    RUN    MK     
MF873                              B738                 ESTI   B-5603 XMN    SIN    MF     
CZ6362                             B738                 ADSB   B-5769 SHE    KWL    CZ     
G32037                             B738                 ADSB   PR-GTR BSB    GIG    G3     
AS1114                             A320                 MLAT   N624VA LAX    IAD    AS     
AI934                              B788                 ESTI   VT-ANQ DXB    COK    AI     
JQ678                              A320                 ESTI   VH-VGR MEL    DRW    JQ     
UL219                              A332                 ADSB   4R-ALH CMB    DOH    UL     
BR159                              A333                 ADSB   B-16331ICN    TPE    BR     
CZ3188                             A321                 ADSB   B-6628 PEK    CGD    CZ     
FX40                               MD11                 ESTI   N523FE MEM    VCP    FX     
W64513                             A320                 ADSB   HA-LPJ VAR    EIN    W6     
FX1151                             MD11                 ADSB   N572FE AFW    LAX    FX     
FR2643                             B738                 ADSB   EI-FTO RIX    STN    FR     
OV40                               NG5                  ADSB   OM-S040              OV     
MQ3475                             CRJ7                 ASDI          MEM    ORD    MQ     
GNIOG                              R44                  MLAT   G-NIOG                      
B6318                              E190                 MLAT   N329JB JFK    BOS    B6     
EDV3355                            CRJ9                 MLAT   N924XJ LGA    RDU           
AT802                              B737                 ADSB   CN-RNL CMN    LGW    AT     
CX199                              A359                 ESTI   B-LRU  HKG    AKL    CX     
QR70                               B77W                 ADSB   A7-BEG FRA    DOH    QR     
XW886                              B772                 ESTI   HS-XBD DMK    TAO    XW     
AI113                              B788                 ESTI   VT-ANY DEL    BHX    AI     
LA35                               A320                 ADSB   CC-BAU SCL    ZCO    LA     
AF7724                             A319                 ADSB   F-GRXJ CDG    NTE    AF     
EW140                              A332                 ADSB   G-VYGL CGN    PUJ    EW     
CA1455                             B738                 ESTI   B-1766 PEK    MIG    CA     
MF8319                             B737                 ADSB   B-5219 XMN    ZUH    MF     
HBAL027                            BALL                 ADSB   N/A                         
A81602                             B190                 ASDI          SDF    MLI    A8     
PO752                              B744                 ASDI          ANC    CVG    PO     
CZ8323                             A321                 ADSB   B-6657 SZX    BKK    CZ     
LY386                              B739                 ESTI   4X-EHC FCO    TLV    LY     
                                   FA7X                 ADSB   PR-DNZ                      
N945PC                             DA40                 ASDI   N945PC                      
WN942                              B737                 ASDI          MCO    FLL    WN     
U28990                             A319                 ADSB   G-EZDV BLQ    LGW    U2     
LH705                              A333                 ESTI   D-AIKM MLE    FRA    LH     
BLOCKED                            GLF6                 ASDI   BLOCKEDDUB    KVNY          
TP1931                             AT76                 ADSB   CS-DJG OPO    LIS    TP     
9W122                              B77W                 ADSB   VT-JEK DEL    LHR    9W     
LJ71                               B772                 ADSB   HL7733 ICN    HKT    LJ     
DETOM                              C152                 MLAT   D-ETOM                      
G76185                             CRJ9                 ADSB   N181GJ BDL    RDU    G7     
MU709                              A332                 ADSB   B-5961 PVG    MAD    MU     
WN311                              B737                 ASDI          TPA    ATL    WN     
THU202                             C208                 ASDI          YTS    YMO           
US4790                             E145                 ASDI          AVP    PHL    US     
                                   A319                 ADSB   ZS-SFI                      
QTR983P                            B788                 ADSB   A7-BCJ DOH    BHX    QR     
CA1516                             A333                 ADSB   B-5956 SHA    PEK    CA     
AZ1714                             A320                 ADSB   EI-IKB CTA    LIN    AZ     
ASV531                             A321                 ADSB   HL8266 ICN    HKG           
CZ365                              A319                 ADSB   B-6409 CAN    KUL    CZ     
4R8540                             B752                 ADSB   VP-BLB               4R     
QF98                               A333                 ADSB   VH-QPE HKG    BNE    QF     
IZ845                              B753                 ADSB   4X-BAU TLV    ETH    IZ     
KC986                              A320                 ADSB   P4-KBG KZO    ALA    KC     
WG32                               B738                 ADSB   C-GBZS YYZ    MCO    WG     
RW6085                             E170                 ASDI   N874RW IND    LGA    RW     
JJ3614                             A321                 ADSB   PT-MXL GRU    CGR    JJ     
AF456                              B772                 ADSB   F-GSPM CDG    GRU    AF     
LH828                              A320                 ADSB   D-AIQF FRA    CPH    LH     
JQ116                              A320                 ESTI   VH-VGZ PER    DPS    JQ     
7C2251                             B738                 ADSB   HL8033 PUS    BKK    7C     
AR1140                             A332                 ESTI   LV-GHQ EZE    FCO    AR     
C54844                             E45X                 MLAT   N14186 GSO    EWR    C5     
EWG9823                            A320                 ADSB   D-AEWF MXP    DUS    EW     
NH40                               B772                 ADSB   JA709A ITM    HND    NH     
HX619                              A333                 ADSB   B-LNP  KIX    HKG    HX     
SC8758                             B738                 ADSB   B-5650 HRB    DAT    SC     
KL713                              B744                 ADSB   PH-BFG AMS    PBM    KL     
NH1720                             B738                 ADSB   JA56AN CTS    KIX    NH     
N321MH                             BE9L                 ADSB   N321MH                      
5J362                              A320                 ADSB   RP-C3269MNL    MFM    5J     
VN546                              A321                 ADSB   VN-A358DAD    CTU    VN     
GB904                              B763                 ADSB   N363CM CVG    SEA    GB     
PB3051                             DH8C                 ASDI          YYT    ZBF    PB     
GK120                              A320                 ADSB   JA11JJ CTS    NRT    GK     
DL1738                             B712                 ASDI          MLB    ATL    DL     
ST1990                             A319                 ADSB   D-ASTB HAM    TLV    ST     
HD35                               B763                 ADSB   JA602A HND    CTS    HD     
NH204                              B77W                 ADSB   JA790A FRA    HND    NH     
N356SR                             H25B                 ASDI   N356SR KSUA   IND           
TK2523                             A319                 ADSB   TC-JLT BJV    IST    TK     
NH540                              B738                 ADSB   JA51AN TAK    HND    NH     
WG511                              B738                 ADSB   C-FEAK YYZ    CUN    WG     
KL1959                             E190                 ADSB   PH-EZP AMS    ZRH    KL     
                                   B744                 ADSB   G-CIVS                      
JT990                              B739                 ADSB   PK-LGU SUB    DPS    JT     
CI772                              A333                 ADSB   B-18351DPS    TPE    CI     
TK7505                             B738                 ADSB   TC-SAK ADB    SAW    TK     
AF6011                             A319                 ADSB   F-GRHI MRS    ORY    AF     
                                   E170                 MLAT   N129HQ                      
OO3144                             CRJ7                 ASDI   N746SK BNA    ORD    OO     
H2124                              A319                 ADSB   CC-AMP SCL    CJC    H2     
KL627                              A332                 SATE   PH-AOA AMS    MIA    KL     
EY74                               B789                 ESTI   A6-BLM ZRH    AUH    EY     
DCAWM                              C56X                 ADSB   D-CAWM                      
9C8824                             A320                 ADSB   B-1026 ZYI    SHA    9C     
N18SC                              B58T                 ASDI   N18SC  ILM    MYR           
OQ2325                             A320                 ADSB   B-6641 CKG    CAN    OQ     
AM694                              B738                 ADSB   N958AM MEX    YVR    AM     
PC332                              B738                 ADSB   TC-ASP BUD    SAW    PC     
UA78                               B77W                 OCEA   N2644U NRT    EWR    UA     
5X32                               B744                 ADSB   N579UP SDF    HNL    5X     
OO5156                             CRJ2                 MLAT   N919SW SPI    ORD    OO     
AZ479                              A319                 ADSB   EI-IMD BUD    FCO    AZ     
QR774                              B77L                 ADSB   A7-BBB GRU    DOH    QR     
IB6650                             A346                 ADSB   EC-JPU LIM    MAD    IB     
SQ530                              A333                 ADSB   9V-SSI SIN    AMD    SQ     
MM318                              A320                 ADSB   JA801P NRT    KIX    MM     
CZ3073                             A333                 ADSB   B-6086 SZX    MEL    CZ     
UA369                              B739                 ADSB   N75428 FLL    IAH    UA     
TP442                              A319                 ADSB   CS-TTD LIS    ORY    TP     
3Z7131                             B738                 ADSB   OK-TVW HRG    WAW    3Z     
CV771                              B744                 ASDI   LX-OCV ORD    LUX    CV     
SQ351                              B77W                 ADSB   9V-SWR CPH    SIN    SQ     
KC904                              A321                 ADSB   P4-KDA AMS    GUW    KC     
AC18                               B788                 ADSB   C-GHPT PVG    YUL    AC     
UAT890                             G115                 MLAT   G-BYUM                      
9C8884                             A320                 ADSB   B-6841 TSN    SYX    9C     
M68440                             B763                 ASDI   N373CM SJU    MIA    M6     
GL781                              A332                 ADSB   CS-TQP CPH    SFJ    GL     
TK2671                             A319                 ADSB   TC-JLS YKO    IST    TK     
GF9012                             A320                 ADSB   A9C-AI               GF     
GK188                              A320                 ADSB   JA08JJ CTS    NGO    GK     
VY1200                             A320                 ADSB   EC-MCU MAD    BCN    VY     
DP173                              B738                 ESTI   VQ-BTJ VKO    IGT    DP     
WN1486                             B737                 ESTI          FLL    BWI    WN     
U25682                             A320                 ADSB   ES-SAQ CPH    TXL    U2     
FX5328                             MD11                 ADSB   N583FE ANC    MEM    FX     
CHI21                              S92                  ASDI          YYT                  
UA5852                             CRJ2                 ASDI          DSM    ORD    OO     
SV758                              A333                 ADSB   HZ-AQL JED    DEL    SV     
KY8362                             B738                 ADSB   B-6491 HDY    KMG    KY     
OD523                              B738                 ADSB   9M-LCJ DMK    KUL    OD     
SQ865                              B77W                 ESTI   9V-SWM HKG    SIN    SQ     
FR1270                             B738                 ADSB   EI-EBR BGY    ATH    FR     
CA1305                             B789                 ESTI   B-1466 PEK    SZX    CA     
LX5121                             A320                 ADSB   HB-IJJ               LX     
                                   BE9L                 ADSB   PR-JAV                      
B61053                             A320                 ASDI   N834JB FLL    SJU    B6     
GSWNS                              R44                  MLAT   G-SWNS                      
TK2910                             A320                 ADSB   TC-JPG SAW    ADB    TK     
ET3717                             B77L                 ADSB   ET-ARK LOS    LGG    ET     
QR314                              A320                 ADSB   A7-ADI ESB    DOH    QR     
WW903                              A321                 ESTI   TF-DAD CPH    KEF    WW     
LH460                              A333                 ADSB   D-AIKC MUC    MIA    LH     
AY1412                             A320                 ADSB   OH-LXL FRA    HEL    AY     
LH568                              A333                 ADSB   D-AIKN FRA    LOS    LH     
FX1857                             MD11                 ADSB   N592FE OAK    PDX    FX     
DY7092                             B788                 ADSB   LN-LNA LAX    CPH    DY     
IB3723                             A320                 ADSB   EC-LEA AMS    MAD    I2     
WN1534                             B737                 ASDI          TPA    BWI    WN     
N72521                             BE58                 ASDI   N72521 MQT    KMOP          
UA430                              A319                 ASDI   N811UA BTV    ORD    UA     
X32218                             B738                 ADSB   D-AHFT STR    TFS    X3     
EDV3398                            CRJ2                 MLAT   N836AY CHO    LGA           
FR4553                             B738                 ADSB   EI-FIZ VLC    TRS    FR     
AA733                              A333                 ADSB   N274AY LHR    CLT    AA     
MF858                              B789                 ASDI   B-1566 LAX    TAO    MF     
8C3377                             B763                 ADSB   N359AZ ONT    CVG    8C     
FM822                              B738                 ESTI   B-1949 KIX    PVG    FM     
KN5518                             B738                 ADSB   B-5471 HLD    NAY    KN     
PS779                              B738                 ADSB   UR-UIA KBP    TLV    PS     
BLOCKED                            GLF6                 ADSB   BLOCKED                     
SU508                              A321                 ADSB   VP-BTH SVO    TLV    SU     
EK566                              B77W                 ESTI   A6-EGW DXB    BLR    EK     
AF306                              A332                 ADSB   F-GZCC CDG    NIM    AF     
DL161                              A333                 ESTI   N808NW AMS    MSP    DL     
IB410                              A320                 ADSB   EC-LRG MAD    XRY    IB     
NH209                              B788                 ADSB   JA813A NRT    DUS    NH     
IB8392                             CRJX                 ADSB   EC-MNR MAD    ALC    YW     
ZA414                              A321                 ESTI   XU-707 CGO    REP    ZA     
TCTKU                              PA44                 ADSB   TC-TKU                      
UA1430                             B752                 ADSB   N19130 OGG    DEN    UA     
FR1300                             B738                 ADSB   EI-EVZ CRL    LIS    FR     
UL866                              A333                 ESTI   4R-ALN CMB    PVG    UL     
PLF106                             GLF5                 ADSB   0002                        
GMAKN                              PC12                 ADSB   G-MAKN                      
IR724                              A306                 ADSB   EP-IBB AMS    IKA    IR     
5X61                               MD11                 ADSB   N280UP TPE    ANC    5X     
BC729                              B738                 ADSB   JA73NR HND    CTS    BC     
CZ315                              A321                 ADSB   B-6317 PEK    ICN    CZ     
OXF45                              PA34                 ADSB   G-OXFF                      
PC1170                             A320                 ADSB   TC-DCB STN    SAW    PC     
CX126                              A359                 ADSB   B-LRL  CHC    HKG    CX     
AF1897                             A320                 ADSB   F-GKXJ CMN    CDG    AF     
GA244                              B738                 ADSB   PK-GFZ CGK    SRG    GA     
WN419                              B737                 ASDI   N455WN BUF    MDW    WN     
BA977                              A319                 ADSB   G-EUPB HAJ    LHR    BA     
MRA609                             C208                 ASDI          LAN    CAD           
RQ16                               A343                 ADSB   YA-KMT DEL    KBL    RQ     
DL2767                             B738                 ADSB   N380DA BOS    SLC    DL     
TP1115                             AT76                 ADSB   CS-DJH OVD    LIS    TP     
U23204                             A319                 ADSB   G-EZGE CAG    STN    U2     
U2153                              A319                 ADSB   G-EZNC LTN    INV    U2     
MQ3972                             E135                 MLAT   N855AE RIC    LGA    MQ     
RS7609                             E170                 MLAT   C-FEJL DCA    YYZ    RS     
EW1791                             A320                 ADSB   OE-IQD NRN    MUC    EW     
WN532                              B38M                 ADSB   N8709Q MSY    BWI    WN     
WN2502                             B737                 MLAT   N7726A BWI    DEN    WN     
9W123                              B77W                 ADSB   VT-JEQ CDG    BOM    9W     
BA778                              B763                 ADSB   G-BNWA LHR    ARN    BA     
JL241                              B738                 ADSB   JA325J HND    OKJ    JL     
FR7713                             B738                 ADSB   EI-ESO FEZ    NRN    FR     
RW4449                             E75S                 ASDI   N411YX CHS    PHL    RW     
EK362                              A388                 ESTI   A6-EEE DXB    CAN    EK     
EI681                              A320                 ADSB   EI-DVN GVA    DUB    EI     
RW3591                             E75L                 ADSB   N747YX YHZ    EWR    RW     
DL598                              B763                 ADSB   N194DN FUK    HNL    DL     
JJ8014                             A321                 ADSB   PT-XPE GRU    AEP    JJ     
B6840                              E190                 ASDI   N193JB SYR    BOS    B6     
HU7690                             B738                 ESTI   B-1493 CGO    SYX    HU     
DAL1344                            A320                 ADSB   N337NW ATL    LGA    DL     
LH1801                             A320                 ADSB   D-AIZD MAD    MUC    LH     
BA148                              A321                 ADSB   G-MEDF BEY    LHR    BA     
AA688                              A321                 ADSB   N151UW CLT    DFW    AA     
VJ278                              A321                 ADSB   VN-A645SGN    VII    VJ     
CZ658                              B77W                 ESTI   B-7588 SFO    CAN    CZ     
QR8102                             B77L                 ESTI   A7-BFI ORD    AMS    QR     
MH148                              A333                 ADSB   9M-MTJ MEL    KUL    MH     
QR647                              A320                 ADSB   A7-AHA KTM    DOH    QR     
FX1508                             MD11                 ASDI   N615FE MEM    LAX    FX     
GB922                              B762                 ASDI   N312AA CVG    HRL    GB     
6E1702                             A320                 ESTI   VT-IEL DOH    DEL    6E     
3S570                              B77L                 ESTI   D-AALA LEJ    PVG    3S     
RW4530                             E75S                 ASDI          SYR    PHL    RW     
WS1865                             B738                 ESTI          HNL    YVR    WS     
MU2455                             B738                 ADSB   B-7375 WUH    PEK    MU     
OS254                              E195                 ADSB   OE-LWI FRA    GRZ    OS     
BA8487                             E190                 ADSB   G-LCYS LCY    AGP    CJ     
CGRWN                              PA31                 ASDI   CGRWN  YHM    YSB           
MT2636                             A332                 ADSB   G-MDBD MAN    UVF    MT     
JL486                              B738                 ADSB   JA334J TAK    HND    JL     
FR8304                             B738                 ADSB   EI-EVM VDA    BTS    FR     
SV942                              B744                 ADSB   TC-ACG AMS    DMM    SV     
CA1337                             B77W                 ADSB   B-1428 PEK    SZX    CA     
DL17                               B763                 OCEA   N1604R LHR    DTW    DL     
OU451                              A319                 ADSB   9A-CTH AMS    ZAG    OU     
BC726                              B738                 ADSB   JA73NU CTS    HND    BC     
TK1759                             B738                 ADSB   TC-JVF IST    LIS    TK     
VY6225                             A320                 ADSB   EC-MLE LGW    FCO    VY     
WN1832                             B737                 ADSB   N7750A DCA    MCO    WN     
CZ3483                             A321                 ADSB   B-6342 CAN    CTU    CZ     
KL1414                             B737                 ADSB   PH-BGN LYS    AMS    KL     
BJ325                              A320                 ADSB   TS-INP NTE    TUN    BJ     
IG822                              B738                 ADSB   EI-FNW DME    MXP    IG     
RWL5142                            PA44                 ADSB   D-GAPP                      
NH231                              B788                 ESTI   JA814A NRT    BRU    NH     
C28349                             AT72                 ASDI          IND    BUF    C2     
HU408                              B789                 ADSB   B-1499 TLV    PVG    HU     
DY4321                             B738                 ADSB   LN-NIG ARN    NCE    DY     
TR170                              A320                 ADSB   9V-TRM SIN    WUX    TR     
NK111                              A320                 ADSB   N619NK DTW    LAS    NK     
WN2044                             B737                 ASDI          MCO    ATL    WN     
VHURR                              CL60                 ADSB   VH-URR                      
SU1743                             B77W                 ESTI   VP-BGD UUS    SVO    SU     
QR8132                             B77L                 ADSB   A7-BFM ATL    DFW    QR     
VS21                               A333                 ADSB   G-VINE LHR    IAD    VS     
PQ613                              A320                 ADSB   RP-C8189MNL    DVO    PQ     
MH389                              A333                 ADSB   9M-MTD PVG    KUL    MH     
TK654                              A333                 ADSB   TC-JOI ALG    IST    TK     
RW4610                             E170                 MLAT   N127HQ JAX    PHL    RW     
CX549                              B77W                 ADSB   B-KPQ  HND    HKG    CX     
SV3236                             A332                 ADSB   TC-OCJ MED    DAC    SV     
C27349                             AT73                 ADSB   N802FX BUF    IND    C2     
QR264                              A333                 ADSB   A7-AEM WAW    DOH    QR     
AA78                               B77W                 ADSB   N720AN DFW    LHR    AA     
TK1943                             A321                 ADSB   TC-JTM IST    BRU    TK     
TG611                              B772                 ESTI   HS-TJD XMN    BKK    TG     
FD315                              A20N                 ADSB   HS-BBZ DMK    KUL    FD     
BE732                              DH8D                 MLAT   G-FLBC LBA    BHD    BE     
LP2421                             A320                 ADSB   CC-BAE LIM    EZE    LP     
DL1088                             B752                 ASDI          ANC    MSP    DL     
JQ29                               B788                 ADSB   VH-VKH MEL    BKK    JQ     
EK95                               B77W                 ADSB   A6-EBI DXB    FCO    EK     
S73340                             A20N                 ADSB   VQ-BCR LED    OVB    S7     
YW8792                             AT76                 ADSB   EC-LSQ MAD    MLN    YW     
3U8091                             A321                 ADSB   B-1677 CKG    KBV    3U     
UX1098                             B738                 ADSB   EC-MPG AMS    MAD    UX     
8C587                              B752                 ASDI          CVG    PHL    8C     
FX15                               B77L                 ADSB   N897FD MEM    NRT    FX     
US4833                             DH8C                 ASDI          HTS    CLT    US     
E510                               G12T                 ADSB   E-510                       
UT596                              B735                 ADSB   VQ-BJN USK    VKO    UT     
UA951                              B772                 ADSB   N224UA BRU    IAD    UA     
SG161                              B738                 ESTI   VT-SZA DEL    BOM    SG     
FD3245                             A320                 ADSB   HS-ABF DMK    TST    FD     
EDV3372                            CRJ2                 ASDI   N833AY IAD    JFK           
CA110                              A333                 ADSB   B-6513 HKG    PEK    CA     
G31012                             B738                 ADSB   PR-GGP CGH    SDU    G3     
U22725                             A320                 ADSB   G-EZTX MXP    AMS    U2     
HX791                              A333                 ADSB   B-LNM  HKG    MLE    HX     
DJ761                              B738                 ADSB   VH-YVA MEL    OOL    DJ     
DZ6222                             B738                 ADSB   B-7300 YIW    SZX    DZ     
BR88                               B77W                 ADSB   B-16703CDG    TPE    BR     
TK1554                             B738                 ADSB   TC-JZF HAJ    IST    TK     
PC2289                             B738                 ADSB   TC-CPZ DLM    SAW    PC     
AZ1565                             A320                 ADSB   EI-EID CAG    LIN    AZ     
MT2848                             A332                 ADSB   G-VYGK MAN    JFK    MT     
VTE1201                            BE40                 ASDI   N483TM PIT    IND           
B8269                              GLF5                 ADSB   B-8269                      
                                   A319                 ADSB   AP-BNI                      
                                   A320                 ADSB   9V-TAN                      
AA988                              B752                 ESTI   N191AN LIM    DFW    AA     
6B227                              B738                 ADSB   SE-RFY ARN    LPA    6B     
N224PA                             WW24                 ASDI   N224PA FLL    CCS           
FR2933                             B738                 ADSB   EI-DPP BRU    ALC    FR     
PO751                              B744                 ADSB   N450PA ORD    ICN    PO     
FX1853                             B763                 ADSB   N148FE OAK    ONT    FX     
3U8700                             A332                 ASDI   B-8962 LAX    TNA    3U     
BY6400                             B738                 ADSB   G-TAWS BOH    ACE    BY     
                                   CRJ2                 MLAT   N917EV                      
GFD4B                              LJ35                 ADSB   D-CGFE                      
PR307                              A333                 ADSB   RP-C8785HKG    MNL    PR     
AV120                              B788                 ESTI   N793AV BOG    LHR    AV     
6E839                              A20N                 ADSB   VT-ITB DEL    BLR    6E     
0B4057                             B735                 ADSB   YR-AMC TRN    LIS    0B     
G31726                             B738                 ADSB   PR-GUT BSB    MAO    G3     
9C8513                             A320                 ADSB   B-6932 YTY    LHW    9C     
AA108                              B77W                 ADSB   N731AN LAX    LHR    AA     
AF7665                             A320                 ADSB   F-HBNJ MRS    CDG    AF     
WIS300                             PAT4                 ASDI          DPA    MKE           
                                   B738                 ADSB   C-FJAU                      
JQ44                               B788                 ADSB   VH-VKA DPS    MEL    JQ     
AF1816                             A318                 ADSB   F-GUGM CDG    DUB    AF     
CI31                               A359                 ASDI   B-18901YVR    TPE    CI     
UA21                               B772                 ADSB   N74007 AMS    IAH    UA     
K6813                              AT75                 ADSB   XU-237 SGN    PNH    K6     
YBQ                                DA42                 ADSB   VH-YBQ                      
TK1995                             A321                 ADSB   TC-JTI IST    MAN    TK     
DD3116                             B738                 ADSB   HS-DBZ DMK    NTG    DD     
BVN8366                            C208                 ASDI          MEM    EVV           
                                   BE20                 MLAT   F-GHSV                      
                                   B738                 ADSB   VP-BEP                      
WIS920                             BE99                 ADSB   N399TS OSH    MKE           
AF1218                             E170                 MLAT   F-HBXA CDG    FRA    AF     
UX1676                             E195                 ADSB   EC-LLR ZRH    MAD    UX     
                                   B789                 ADSB   HL8082                      
YGF                                C172                 ADSB   VH-YGF                      
                                   A319                 ADSB   PR-MAO                      
J28076                             B788                 ADSB   VP-BBS IST    GYD    J2     
QF74                               B744                 OCEA   VH-OEH SFO    SYD    QF     
AA176                              B772                 ADSB   N793AN NRT    DFW    AA     
RW4557                             E75S                 ASDI          PIT    DCA    RW     
CFJXD                                                   ASDI   CFJXD                       
LX252                              A333                 ADSB   HB-JHL ZRH    TLV    LX     
CFSXG                                                   ASDI   CFSXG                       
W67702                             A320                 ADSB   HA-LYQ LTN    SKP    W6     
DL181                              B763                 ESTI   N198DN NRT    MNL    DL     
HU7977                             A332                 ESTI   B-5955 PEK    YYC    HU     
YGH                                B733                 ADSB   PK-YGH                      
F91104                             A320                 ESTI          LAS    MIA    F9     
WB212                              B737                 ADSB   9XR-WJ DLA    COO    WB     
CZ6975                             B38M                 ADSB   B-1205 URC    PVG    CZ     
BLOCKED                            C55B                 ASDI   BLOCKEDKCTY   KEQY          
G9465                              A320                 ADSB   A6-AOQ SHJ    DEL    G9     
Y4792                              A320                 ADSB   N527VL MEX    CUL    Y4     
CX97                               B748                 ADSB   B-LJK  ANC    HKG    CX     
KA947                              A333                 ADSB   B-HLJ  XIY    HKG    KA     
VJT930                             GLEX                 ADSB   9H-VJY                      
AV9406                             AT76                 ADSB   HK-4956BOG    VVC    AV     
CV773                              B748                 ASDI   LX-VCD SEA    LUX    CV     
FD3257                             A320                 ADSB   HS-BBQ KKC    DMK    FD     
EV4238                             E145                 ASDI          SBN    EWR    EV     
VN259                              B789                 ADSB   VN-A867HAN    SGN    VN     
AA430                              A321                 ADSB   N974UY SFO    CLT    AA     
FR6209                             B738                 ADSB   EI-ENB ACE    NRN    FR     
TG221                              B744                 ADSB   HS-TGX BKK    HKT    TG     
                                   B738                 ADSB   B-6060                      
CZ605                              A320                 ADSB   B-6282 CSX    BKK    CZ     
SK566                              A320                 ADSB   OY-KAL CDG    CPH    SK     
SQ978                              B772                 ADSB   9V-SVE SIN    BKK    SQ     
WN1584                             B738                 ADSB   N8326F BWI    FLL    WN     
UA1920                             B739                 MLAT   N37408 AUS    IAH    UA     
CZ6174                             A320                 ESTI   B-6588 CGQ    SYX    CZ     
KE868                              A333                 ADSB   HL7710 ULN    ICN    KE     
AX4644                             E145                 ASDI          ALB    ORD    AX     
G31013                             B738                 ADSB   PR-GXW SDU    CGH    G3     
MH2631                             B738                 ADSB   9M-MLK BKI    KUL    MH     
JJ9620                             B77W                 ASDI   PT-MUH GRU    MCO    JJ     
EY76                               B789                 ADSB   A6-BLH MAD    AUH    EY     
AOJ46D                             C25A                 MLAT   OE-FOA                      
OO7421                             CRJ2                 ASDI          ITH    DTW    OO     
EK22                               A388                 ADSB   A6-EDA MAN    DXB    EK     
U26883                             A319                 ADSB   G-EZFL GLA    CDG    U2     
FX1548                             B752                 ADSB   N780FD MEM    GTF    FX     
GH991                              B738                 ADSB   VP-BUG DME    DUS    GH     
TK80                               B77W                 ADSB   TC-LJF SFO    IST    TK     
N626JJ                             GLF4                 ADSB   N626JJ TEB    MCO           
BY2452                             B752                 ADSB   G-OOBP MAN    ACE    BY     
9W527                              B738                 ADSB   VT-JGS DXB    COK    9W     
FX1487                             B752                 ASDI   N979FD MEM    COS    FX     
SU1182                             A320                 ADSB   VP-BTO SVO    VOG    SU     
FV6152                             B738                 ADSB   VP-BUS AER    VKO    FV     
FD572                              A320                 ADSB   HS-ABR DMK    WUH    FD     
                                   A20N                 ADSB   N304FR                      
AA905                              B772                 ADSB   N750AN MIA    GIG    AA     
MP8141                             B744                 ADSB   PH-CKA               MP     
SN811                              A320                 ADSB   OO-SNI BRU    OPO    SN     
BLOCKED                            DA42                 MLAT   BLOCKED                     
SV737                              B772                 ESTI   HZ-AKU LHE    JED    SV     
OK191                              A333                 ADSB   OK-YBA ICN    PRG    OK     
I23822                             A320                 ADSB   EC-LUS MAD    LPA    I2     
AK591                              A320                 ESTI   9M-AFZ DVO    KUL    AK     
AD4310                             AT76                 ADSB   PR-AQK VCP    SJP    AD     
BKH03                              G12T                 ADSB   ZM301                       
U28994                             A320                 ADSB   G-EZWN PRG    LGW    U2     
V9314                              A320                 ADSB   HS-VKA BKK    HKT    V9     
BFY376                             GLF4                 ADSB   P4-BFL                      
UT400                              B735                 ADSB   VP-BVN GRV    VKO    UT     
IW1389                             AT76                 ADSB   PK-WGS PKY    BDJ    IW     
DY1041                             B738                 ADSB   LN-DYV KRK    OSL    DY     
CI6596                             B744                 ADSB   B-18716HAN    TPE    CI     
B6988                              A321                 ADSB   N937JB LAX    BOS    B6     
JW10                               A320                 ADSB   JA02DJ CTS    NGO    JW     
MU2277                             B738                 ESTI   B-5857 TYN    HAK    MU     
HV6061                             B737                 ADSB   PH-XRY RTM    BCN    HV     
MT9408                             A320                 ADSB   G-TCAE BEY    LHR    MT     
9C8856                             A320                 ADSB   B-6646 CAN    SHA    9C     
FR2097                             B738                 ADSB   EI-DLH LIS    CIA    FR     
DS8467                             A320                 ADSB   HB-JYE GVA    LGW    DS     
N104RJ                             LJ60                 ASDI   N104RJ KFXE   MIA           
FV5876                             B744                 ADSB   EI-XLD HKT    VKO    FV     
MRA605                             C208                 ASDI          LAN    MKG           
OK700                              B738                 ADSB   OK-TSD PRG    MAD    OK     
DL120                              B772                 ESTI   N860DA HND    MSP    DL     
GT1074                             A320                 ADSB   B-1037 DLC    KWL    GT     
FR2375                             B738                 ADSB   EI-DYR GDN    STN    FR     
CI12                               B77W                 ADSB   B-18053TPE    JFK    CI     
LH456                              A388                 ESTI   D-AIMI FRA    LAX    LH     
6E6325                             A320                 ADSB   VT-IGY DEL    IXR    6E     
JJ8127                             A321                 ADSB   PT-XPH EZE    BSB    JJ     
CZ6518                             A321                 ADSB   B-6271 HGH    SHE    CZ     
XQ976                              B738                 ADSB   TC-SEZ ADB    MUC    XQ     
FX1429                             MD11                 ADSB   N631FE MEM    SMF    FX     
MF895                              B738                 ADSB   B-1915 FOC    CGK    MF     
KL771                              A332                 ADSB   PH-AOC AMS    BON    KL     
HU7722                             B738                 ADSB   B-1497 NGB    SZX    HU     
SQ7359                             B744                 ADSB   9V-SFO SHJ    SIN    SQ     
6E731                              A320                 ADSB   VT-IEP AMD    DEL    6E     
5Y588                              B762                 ASDI          CVG    BOS    5Y     
RPA4427                            E170                 ADSB   N415YX BTV    DCA    RW     
FJ811                              A332                 OCEA   DQ-FJT LAX    NAN    FJ     
VN570                              A321                 ADSB   VN-A332SGN    TPE    VN     
WK67                               A333                 ESTI   HB-JHR MLE    ZRH    WK     
QR196                              A359                 ADSB   A7-ALA BRU    DOH    QR     
UK955                              A20N                 ADSB   VT-TNC DEL    VNS    UK     
WG746                              B738                 ADSB   C-GWVB YYZ    NAS    WG     
FR9885                             B738                 ADSB   EI-ENJ LDY    LPL    FR     
SV530                              A321                 ADSB   HZ-ASW JED    MCT    SV     
CZ618                              B788                 ADSB   B-2787 CHC    CAN    CZ     
BR668                              B744                 ASDI   B-16483ANC    ATL    BR     
GK81                               A320                 ADSB   JA17JJ KIX    MNL    GK     
QK945                              DH8D                 ASDI   C-FSRN YSJ    YYZ    QK     
LU203                              A321                 ADSB   CC-BEE SCL    CCP    LU     
LH758                              A343                 ADSB   D-AIGV FRA    MAA    LH     
ZE591                              B738                 ADSB   HL8035 ICN    DAD    ZE     
S7182                              A320                 ADSB   VQ-BRD OVB    DME    S7     
GB803                              B763                 ADSB   N362CM CVG    LAX    GB     
9W235                              A333                 ADSB   VT-JWT AMS    BLR    9W     
BV2233                             B738                 ADSB   EI-GAX TIA    BGY    BV     
BI651                              A320                 ADSB   V8-RBX BWN    ICN    BI     
B62216                             E190                 MLAT   N229JB BUF    BOS    B6     
CA1387                             B738                 ADSB   B-7890 TSN    CAN    CA     
DJ1639                             B738                 ADSB   VH-YFL BNE    LST    DJ     
N7945G                                                  ASDI   N7945G                      
LS545                              B738                 ADSB   G-JZBB NCL    ACE    LS     
TK1989                             A321                 ADSB   TC-JSA IST    LHR    TK     
DL2014                             MD88                 ADSB   N911DL SYR    ATL    DL     
ZW3760                             CRJ2                 ASDI          ROA    ORD    ZW     
JT118                              A333                 ESTI   PK-LEG BPN    MED    JT     
GB2008                             B762                 MLAT   N787AX PHX    CVG    GB     
TP831                              A321                 ADSB   CS-TJG FCO    LIS    TP     
U26878                             A320                 ADSB   OE-IJG ALC    GLA    U2     
KE705                              B772                 ADSB   HL7714 ICN    NRT    KE     
I23842                             A321                 ADSB   EC-JLI MAD    SPC    I2     
FZ863                              B738                 ADSB   A6-FEC DXB    DMM    FZ     
MS995                              B77W                 ADSB   SU-GDN CAI    YYZ    MS     
UA986                              B763                 ADSB   N654UA CDG    ORD    UA     
SU1135                             A321                 ADSB   VP-BES AER    SVO    SU     
FR2576                             B738                 ADSB   EI-FOV EIN    AGP    FR     
UAX74                              G115                 MLAT   G-BYWA                      
CX93                               B748                 ASDI   B-LJH  ANC    HKG    CX     
E47273                             B738                 ADSB   SP-ESB POZ    TFS    E4     
EK181                              B77W                 ADSB   A6-EBM DXB    BRU    EK     
XT223                              A320                 ADSB   PK-AZH PEN    CGK    XT     
ME314                              A320                 ADSB   OD-MRO BEY    AMM    ME     
JJ3060                             A320                 ADSB   PR-MHR VCP    BSB    JJ     
LH1784                             A320                 ADSB   D-AIZF MUC    ESB    LH     
AC308                              B38M                 ADSB   C-FTJV YVR    YUL    AC     
MI522                              A320                 ADSB   9V-SLR RGN    SIN    MI     
6E7114                             AT76                 ADSB   VT-IYB BLR    TIR    6E     
AM25                               B788                 ESTI   N964AM MEX    AMS    AM     
BR15                               B77W                 OCEA   B-16713LAX    TPE    BR     
DIKGT                              PRM1                 MLAT   D-IKGT                      
X32148                             B738                 ADSB   D-ATYB HAJ    FUE    X3     
SU2639                             A320                 ADSB   VP-BJY BCN    SVO    SU     
AR1865                             B738                 ADSB   LV-GGQ REL    AEP    AR     
GFD5B                              LJ35                 ADSB   D-CGFA                      
FR4985                             B738                 ADSB   EI-FRZ TSF    BVA    FR     
QF80                               A333                 ESTI   VH-QPA NRT    MEL    QF     
KE853                              B789                 ADSB   HL8081 ICN    PEK    KE     
WS730                              B737                 ADSB   C-GWSU YVR    YYZ    WS     
FR5279                             B738                 ADSB   EI-EPG TFN    MAD    FR     
BA501                              A320                 ADSB   G-EUYL LIS    LHR    BA     
AR1751                             B738                 ADSB   LV-GGK PSS    AEP    AR     
U28817                             A320                 ADSB   G-EZPE LGW    TLV    U2     
YC9744                             A321                 ADSB   VP-BWO SLY    DME    YC     
EK9977                             B77L                 ADSB   A6-EFD DWC    FRA    EK     
MU598                              A332                 ASDI   B-5973 YVR    PVG    MU     
KE1239                             B739                 ADSB   HL7718 GMP    CJU    KE     
AD4470                             A20N                 ADSB   PR-YRK VCP    FOR    AD     
CZ359                              A333                 ADSB   B-8870 CAN    DEL    CZ     
5X892                              A306                 ASDI   N138UP SDF    LAS    5X     
BA84                               B744                 ADSB   G-CIVM YVR    LHR    BA     
5X954                              B752                 ADSB   N425UP ONT    KMHR   5X     
AS1420                             A320                 ADSB   N361VA LAX    JFK    AS     
DT571                              B737                 ADSB   D2-TBG SDD    WDH    DT     
DL679                              A319                 MLAT   N363NB BOS    DTW    DL     
ZH9052                             B738                 ADSB   B-5345 NRT    SZX    ZH     
MF838                              B738                 ADSB   B-1580 BKK    FOC    MF     
RV1937                             B763                 OCEA   C-GSCA CMN    YUL    RV     
LH838                              E190                 ADSB   D-AECB FRA    BLL    LH     
AA2197                             B738                 ADSB   N985NN SLC    MIA    AA     
PK757                              B772                 ADSB   AP-BGL LHE    LHR    PK     
DL1908                             B763                 ADSB   N195DN LAX    JFK    DL     
7C4205                             B738                 ADSB   HL8260 ICN    CNX    7C     
IX141                              B738                 ESTI   VT-AXP DEL    DXB    IX     
VS251                              B789                 ESTI   G-VBOW PVG    LHR    VS     
ME333                              A320                 ADSB   T7-MRB BSR    BEY    ME     
EY450                              A388                 ESTI   A6-APE AUH    SYD    EY     
EY131                              B789                 ADSB   A6-BLB AUH    IAD    EY     
ZUSTB                              SLG2                 ADSB   ZU-STB                      
OS688                              E195                 ADSB   OE-LWB MSQ    VIE    OS     
SV21                               B77W                 OCEA   HZ-AK20JED    JFK    SV     
DGEMB                              P68                  ADSB   D-GEMB                      
UT558                              B735                 ADSB   VP-BXR MCX    VKO    UT     
EK903                              B77W                 ADSB   A6-ECD DXB    AMM    EK     
SKQ65                              PC12                 ASDI          KBUY   BHM           
MH705                              B738                 ESTI   9M-MXK MNL    KUL    MH     
AC1298                             A320                 ASDI   C-FKPT YHZ    TPA    AC     
LA449                              A320                 ADSB   CC-BAL SCL    EZE    LA     
AT764                              B788                 ADSB   CN-RGB CMN    ORY    AT     
ETD80C                             A321                 ESTI   A6-AEA AUH    COK    EY     
AI670                              A321                 ADSB   VT-PPT BBI    BOM    AI     
TK18                               B77W                 ADSB   TC-JJK YYZ    IST    TK     
GSCOR                              EC55                 ADSB   G-SCOR                      
QY1053                             B77L                 ADSB   B-2096 ANC    ORD    QY     
LH827                              A320                 ADSB   D-AIPS CPH    FRA    LH     
5X492                              B763                 ADSB   N306UP SDF    FSD    5X     
FD3110                             A20N                 ADSB   HS-CBF DMK    HDY    FD     
DMPCS                              VL3                  ADSB   D-MPCS                      
SU100                              B77W                 ADSB   VQ-BQD SVO    JFK    SU     
EY655                              A320                 ADSB   A6-EII AUH    CAI    EY     
UA804                              B772                 ESTI   N218UA NRT    IAD    UA     
EK135                              B77W                 ADSB   A6-EGN DXB    VCE    EK     
FR2877                             B738                 ADSB   EI-GDG PMI    WMI    FR     
EK44                               A388                 ADSB   A6-EEB FRA    DXB    EK     
QR94                               B788                 ADSB   A7-BCG ZRH    DOH    QR     
BA168                              B77W                 ADSB   G-STBI PVG    LHR    BA     
BA926                              A320                 ADSB   G-EUYX LHR    MUC    BA     
FX55                               B752                 ADSB   N971FD MEM    BOG    FX     
CZ6315                             A320                 ADSB   B-6679 SHE    CAN    CZ     
I23910                             A320                 ADSB   EC-LUC MAD    TFS    I2     
FX169                              B77L                 ADSB   N885FD MEM    ANC    FX     
KL751                              B772                 ESTI   PH-BQB AMS    UIO    KL     
SU205                              A333                 ADSB   VQ-BEK PEK    SVO    SU     
FR8807                             B738                 ADSB   EI-EFN FUE    BGY    FR     
LH8231                             MD11                 ASDI   D-ALCB LAX    FRA    LH     
5X796                              B752                 ADSB   N403UP SDF    MFE    5X     
IB6844                             A332                 ESTI   EC-MKJ EZE    MAD    IB     
ST3954                             B737                 ADSB   D-AGEQ FDH    HRG    ST     
WN1266                             B737                 ASDI   N486WN RDU    MCO    WN     
N546LM                             BE20                 ASDI   N546LM BET    ANC           
GRZZLY52                            H47                  MLAT   D-664                       
KN5912                             B738                 ADSB   B-1465 SZX    FUG    KN     
TK1918                             A321                 ADSB   TC-JSO GVA    IST    TK     
SU2417                             B738                 ADSB   VP-BSB MXP    SVO    SU     
JJ3476                             A321                 ADSB   PT-XPN GRU    MCZ    JJ     
6E433                              A320                 ADSB   VT-IDG GAU    BOM    6E     
CD9796                             B738                 ADSB   PH-CDH               CD     
AF6120                             A321                 ADSB   F-GMZA ORY    TLS    AF     
CI5254                             B744                 ESTI   B-18721ANC    ATL    CI     
DL1249                             MD88                 ADSB   N922DL PWM    ATL    DL     
PK791                              B772                 ADSB   AP-BHX ISB    BHX    PK     
8C3884                             B763                 ASDI   N347AZ PHX    RFD    8C     
                                   LJ31                 ADSB   PR-WMA                      
LH1446                             A321                 ADSB   D-AISJ FRA    DME    LH     
D7330                              A333                 ADSB   9M-XXV KUL    PVG    D7     
GK309                              A320                 ESTI   JA19JJ NRT    OKA    GK     
CX712                              A359                 ADSB   B-LRR  BKK    HKG    CX     
9C8801                             A320                 ADSB   B-6707 PVG    SYX    9C     
AH2046                             B738                 ADSB   7T-VKQ ALG    GVA    AH     
FR6874                             B738                 ADSB   EI-FOF BCN    DUB    FR     
9W429                              A332                 ADSB   VT-JWP MAA    BOM    9W     
KE602                              B772                 ADSB   HL7530 HKG    ICN    KE     
UO1647                             A20N                 ESTI   B-LCN  NRT    HKG    UO     
B6517                              A320                 ASDI          FLL    MEX    B6     
EY291                              A320                 ADSB   A6-EIU KTM    AUH    EY     
UA988                              B772                 ADSB   N216UA FRA    IAD    UA     
U27680                             A319                 ADSB   G-EZFV LIL    LIS    U2     
CZ601                              A333                 ADSB   B-5928 CAN    SYD    CZ     
AY88                               A359                 ADSB   OH-LWD PVG    HEL    AY     
AS134                              B739                 ASDI          ANC    PDX    AS     
LH17                               A321                 ADSB   D-AISI HAM    FRA    LH     
FIN27L                             A321                 ADSB   OH-LZT BCN    HEL    AY     
FR9366                             B738                 ADSB   EI-FTH BCN    BLQ    FR     
EZY91VE                            A319                 ADSB   G-EZFW ALC    NCL    U2     
BA10                               B772                 ESTI   G-YMMT BKK    LHR    BA     
SX300                              SB20                 ADSB   HB-IZD BRN    AMS    SX     
G52841                             CRJ9                 ADSB   B-3141 BAV    TSN    G5     
DL201                              B77L                 ADSB   N704DK JNB    ATL    DL     
UT368                              B734                 ADSB   VQ-BIC ROV    VKO    UT     
EK928                              B77W                 ADSB   A6-EGL CAI    DXB    EK     
S7175                              A320                 ADSB   VQ-BPN DME    OVB    S7     
JO741                              B738                 ADSB   G-FDZX SOU    GLA    JO     
VTCPA                              GLF5                 ADSB   VT-CPA                      
QG646                              A320                 ADSB   PK-GQL SUB    DPS    QG     
FR9065                             B738                 ADSB   EI-EVO BGY    ALC    FR     
PD204                              DH8D                 ASDI          YOW    YTZ    PD     
9C8549                             A320                 ADSB   B-1657 PVG    SIN    9C     
9S275                              B77L                 ADSB   N774SA CVG    BAH    9S     
CA1395                             B738                 ADSB   B-5849 TSN    CAN    CA     
5X702                              A306                 ADSB   N146UP SDF    MSY    5X     
UA838                              B77W                 OCEA   N2136U NRT    SFO    UA     
ZH9756                             A320                 ADSB   B-1683 XMN    YTY    ZH     
TG556                              A333                 ADSB   HS-TBE BKK    SGN    TG     
DK1517                             A321                 ADSB   OY-TCE LPA    EVE    DK     
DL1212                             B753                 ESTI          HNL    LAX    DL     
WN795                              B737                 ADSB   N7841A GRR    DEN    WN     
TR993                              A320                 ESTI   9V-TRK TPE    SIN    TR     
4O2810                             A320                 ADSB   XA-IUA MEX    YUL    4O     
AZ726                              A319                 ADSB   EI-IME LIN    ATH    AZ     
QG877                              A320                 ADSB   PK-GQG SUB    PNK    QG     
VS127                              A333                 ADSB   G-VGBR MAN    JFK    VS     
ASV522                             A321                 ADSB   HL7790 MFM    ICN           
AA165                              B738                 ADSB   N937NN BOS    DFW    AA     
E4517                              B738                 ADSB   SP-ENV HEL    ALC    E4     
JQ674                              A320                 ESTI   VH-VQG BNE    DRW    JQ     
EK9933                             B77L                 ADSB   A6-EFH DWC    FRA    EK     
MF840                              B738                 ESTI   B-5151 KIX    XMN    MF     
KU117                              B77W                 ADSB   9K-AOJ KWI    SNN    KU     
UA3975                             E45X                 ASDI          CLE    IAH    EV     
AA1661                             A320                 ASDI   N664AW EWR    CLT    AA     
B61895                             A320                 ADSB   N655JB HPN    MCO    B6     
TVS5QT                             B738                 ADSB   OK-TVO PRG    SVO    QS     
BLOCKED                            E55P                 ADSB   BLOCKEDKHFJ   BKG           
NH178                              B789                 ESTI   JA877A NRT    SEA    NH     
SQ833                              A388                 ADSB   9V-SKG PVG    SIN    SQ     
CX581                              B773                 ADSB   B-HNM  CTS    HKG    CX     
MSX522                             A306                 ADSB   SU-GAS CAI    FCO           
AR1280                             B738                 ESTI   LV-CXS AEP    SCL    AR     
B6185                              E190                 ASDI   N304JB ROC    JFK    B6     
S24690                             B738                 ESTI   VT-SJJ GAU    DEL    S2     
BA253                              B772                 ESTI   G-YMMB LHR    NAS    BA     
HY612                              A320                 ADSB   UK32015DME    SKD    HY     
EK412                              A388                 ESTI   A6-EUE DXB    SYD    EK     
TK1338                             A319                 ADSB   TC-JLV LEJ    IST    TK     
FX1473                             A306                 ADSB   N690FE MEM    BOS    FX     
9W119                              B77W                 ADSB   VT-JEH LHR    BOM    9W     
AA2622                             B738                 ADSB   N926AN EWR    CLT    AA     
DL150                              B764                 ADSB   N842MH LIM    ATL    DL     
NH6                                B77W                 OCEA   JA780A NRT    LAX    NH     
FR2211                             B738                 ADSB   EI-FZR OMR    STN    FR     
SG125                              B738                 ADSB   VT-SPF IXB    DEL    SG     
JL6                                B77W                 ADSB   JA731J HND    JFK    JL     
CFDOV                              BE10                 ASDI   CFDOV  CSZ4   YQB           
G4818                              A320                 ASDI          PIE    KJQF   G4     
BR238                              A333                 ADSB   B-16337CGK    TPE    BR     
                                   E145                 MLAT   N613AE                      
                                   PAT4                 ADSB   N401VA                      
VJT425                             CL35                 ADSB   9H-VCC                      
                                   C680                 ADSB   N884HJ                      
DL572                              B738                 ESTI   N3749D LAX    LIR    DL     
AZ791                              A332                 ADSB   EI-DIP PEK    FCO    AZ     
MRA630                             C208                 ASDI   N9546B ABY    ECP           
EK405                              A388                 ESTI   A6-EOV MEL    SIN    EK     
AA2103                             A321                 ADSB   N552UW BDL    CLT    AA     
SG815                              B738                 ADSB   VT-SPK IXB    BLR    SG     
ZI152                              A320                 ADSB   F-HBIO ALG    ORY    ZI     
CA984                              B77W                 ASDI   B-2033 LAX    PEK    CA     
G9537                              A320                 ESTI   A6-AOU SHJ    KTM    G9     
AZ1630                             A319                 ADSB   EI-IMJ BRI    LIN    AZ     
NTB854                             AT75                 ADSB   D4-CCA                      
EP550                              A320                 ADSB   EP-API               EP     
BAF638                             C130                 MLAT   CH-10                       
LA530                              B788                 ADSB   CC-BBB LIM    JFK    LA     
JJ3291                             B763                 ESTI   PT-MOA REC    GRU    JJ     
FR1323                             B738                 ADSB   EI-EBZ VDA    CRL    FR     
RO382                              B737                 ADSB   YR-BGF CDG    OTP    RO     
NH268                              B772                 ADSB   JA710A FUK    HND    NH     
FR8006                             B738                 ADSB   EI-DYD ABZ    ALC    FR     
N970FE                             C208                 ADSB   N970FE ICT    AFW           
UO3013                             A321                 ADSB   B-LEB  KIX    HKG    UO     
                                   DA40                 MLAT   TF-KFC                      
BLOCKED                            G280                 ADSB   BLOCKEDFTW    IAH           
FR3009                             B738                 ADSB   EI-EVH TLS    MLA    FR     
                                   E170                 MLAT   N111HQ                      
3U8740                             A320                 ADSB   B-8323 LHW    HGH    3U     
IB3827                             A320                 ADSB   EC-JFG LPA    MAD    I2     
QR8144                             B77L                 ADSB   A7-BFH ATL    LUX    QR     
3U609                              A333                 ESTI   B-5929 CTU    SVO    3U     
AC46                               B77L                 ESTI   C-FNNH YYZ    BOM    AC     
VJ805                              A320                 ADSB   VN-A681SGN    BKK    VJ     
KL1794                             B738                 ADSB   PH-BCB MUC    AMS    KL     
AA2184                             B738                 ADSB   N970NN BOS    LAX    AA     
KC921                              B752                 ADSB   P4-FAS TSE    FRA    KC     
DE2186                             B763                 ESTI   D-ABUF MUC    HAV    DE     
ZH9644                             A320                 ADSB   B-6690 CGQ    SZX    ZH     
WR3514                             DH8D                 ASDI          YYZ    YUL    WR     
U28874                             A319                 ADSB   G-EZDK AMS    LGW    U2     
SX621                              SB20                 ADSB   HB-IZS VIE    BSL    SX     
                                   A333                 ADSB   B-6127                      
SK1420                             A20N                 ADSB   SE-ROC CPH    ARN    SK     
NK238                              A320                 ADSB   N643NK SEA    BWI    NK     
                                   B737                 ADSB   C-FUWS                      
EK230                              B77W                 ADSB   A6-ECN SEA    DXB    EK     
BA565                              A319                 ADSB   G-EUPH LIN    LHR    BA     
BA514                              A321                 ADSB   EC-IJN LHR    MAD    IB     
OO5101                             CRJ2                 ASDI          DVL    JMS    OO     
SNC1103                            SH36                 ASDI          SJU    STX           
ZW3880                             CRJ2                 MLAT   N440AW ORF    IAD    ZW     
LL173                              C172                 ADSB   N734SX MIA    STL    LL     
OO4783                             CRJ7                 ASDI          DLH    MSP    OO     
EY103                              A388                 ADSB   A6-APJ AUH    JFK    EY     
EDV3780                            CRJ9                 ASDI          YOW    LGA           
CM174                              B738                 ADSB   HP-1851CMPSCL    PTY    CM     
UX9161                             B738                 ADSB   EC-MQP LPA    MAD    UX     
9W116                              B77W                 ADSB   VT-JET BOM    LHR    9W     
AM90                               B788                 ADSB   N782AM MTY    ICN    AM     
ST1205                             A319                 ADSB   D-ASTT TLV    NUE    ST     
TR616                              A320                 ADSB   9V-TRC SIN    BKK    TR     
LS781                              B738                 ADSB   G-GDFC MAN    LPA    LS     
WN1097                             B738                 ADSB   N8602F MCO    LAS    WN     
HX21                               A332                 ESTI   B-LNE  HKG    AKL    HX     
KLM24T                             B738                 ADSB   PH-BGB CPH    AMS    KL     
FD447                              BE20                 ADSB   VH-FDW                      
                                   A320                 ADSB   VT-IFY                      
UA902                              B772                 ESTI   N797UA NRT    HNL    UA     
O68518                             A332                 ADSB   PR-OCK GRU    SCL    O6     
DMIEW                              PIVI                 ADSB   D-MIEW                      
9I614                              AT76                 ADSB   VT-AIY IXJ    DEL    9I     
SU1703                             A333                 ADSB   VQ-BPK VVO    SVO    SU     
SQ921                              B772                 ADSB   9V-SQL MNL    SIN    SQ     
KL1654                             B738                 ADSB   PH-BXN VCE    AMS    KL     
EI403                              A320                 ADSB   EI-DVE FCO    DUB    EI     
FR6025                             B738                 ADSB   EI-FEH OTP    ATH    FR     
LH8415                             MD11                 ADSB   D-ALCJ KJA    FRA    LH     
DL2551                             B712                 MLAT   N915AT YYZ    ATL    DL     
RSCU500                            A139                 ADSB   VH-ESH                      
JQ906                              A320                 ADSB   VH-VQC BNE    TSV    JQ     
MH4                                A359                 ESTI   9M-MAC KUL    LHR    MH     
AA1245                             B738                 ADSB   N976NN DFW    ORD    AA     
N1089C                             BE36                 ASDI   N1089C KUMP   DTW           
AK72                               A320                 ESTI   9M-AJK KUL    MLE    AK     
I23943                             A320                 ESTI   EC-JFH TFN    MAD    I2     
N63DR                              KODI                 ADSB   N63DR                       
4O2850                             A320                 ADSB   XA-MBA MEX    YVR    4O     
5X76                               B748                 ADSB   N607UP SDF    ANC    5X     
QR27                               B788                 ADSB   A7-BDD DOH    MAN    QR     
FX1430                             MD11                 ADSB   N594FE MEM    SLC    FX     
WN2082                             B737                 MLAT   N935WN LGA    HOU    WN     
SU2152                             A320                 ADSB   VP-BTA SVO    DUS    SU     
UA1078                             B739                 ADSB   N77430 BOS    EWR    UA     
FX104                              A306                 ADSB   N674FE MEM    MIA    FX     
FR4017                             B738                 ADSB   EI-DAD OPO    MXP    FR     
AY162                              A359                 ADSB   OH-LWA SGN    HEL    AY     
UA1499                             B738                 ADSB   N86534 IAH    ORD    UA     
ZW3773                             CRJ2                 MLAT   N408AW ERI    ORD    ZW     
SC4629                             B738                 ADSB   B-1443 XMN    CAN    SC     
EY17                               A388                 ESTI   A6-APB AUH    LHR    EY     
O66312                             A320                 ADSB   PR-OCI SSA    REC    O6     
                                   A20N                 ADSB   N316FR                      
KL1217                             E75L                 ADSB   PH-EXR AMS    TRF    KL     
F9177                              A320                 ADSB   N203FR PHL    DEN    F9     
BVN8285                            C208                 ADSB   N774FE LBB    ROW           
SV1541                             A320                 ADSB   HZ-AS23RUH    TUU    SV     
AA1877                             A319                 ADSB   N713UW CLT    MIA    AA     
SU2411                             A321                 ADSB   VQ-BHK MXP    SVO    SU     
OD226                              B738                 ADSB   9M-LND TRZ    KUL    OD     
S740                               A319                 ADSB   VP-BTQ LED    DME    S7     
AA2769                             B738                 ADSB   N969NN ATL    LAX    AA     
NK753                              A320                 ADSB   N642NK PHL    MCO    NK     
CC4619                             B744                 ESTI   TF-AMU YEG    LGG    CC     
OO4285                             CRJ2                 ASDI          ERI    DTW    OO     
3U8126                             A321                 ADSB   B-8603 SJW    HRB    3U     
                                   CRJ7                 MLAT   N354CA                      
U26072                             A319                 ADSB   G-EZDL ALC    BRS    U2     
LX2026                             A320                 ADSB   HB-IJN ZRH    MAD    LX     
HBGPH                              BE20                 MLAT   HB-GPH                      
LH1669                             E195                 ADSB   I-ADJR CLJ    MUC    LH     
SQ214                              B772                 ESTI   9V-SRQ PER    SIN    SQ     
BLOCKED                            GLF6                 ADSB   BLOCKED                     
G8120                              A320                 ADSB   VT-GOO DEL    BLR    G8     
9W545                              B738                 ADSB   VT-JFA DXB    DEL    9W     
UA1224                             B739                 ADSB   N37422 PIT    ORD    UA     
US5653                             CRJ2                 ASDI          ALB    DCA    US     
I5731                              A320                 ADSB   VT-ATB DEL    PNQ    I5     
UA945                              B772                 ESTI   N791UA FRA    ORD    UA     
UX1502                             E195                 ADSB   EC-LFZ FRA    MAD    UX     
DP832                              B738                 ADSB   VQ-BTH GRO    VKO    DP     
NHSL071                            S76                  ADSB   9Y-MAD                      
DS1432                             A319                 ADSB   HB-JYK AGP    GVA    DS     
5X972                              A306                 ADSB   N142UP ONT    PDX    5X     
DESEN                              A210                 ADSB   D-ESEN                      
FZ304                              B738                 ADSB   A6-FDH KBL    DXB    FZ     
RU419                              B748                 ESTI   VQ-BFE SVO    PVG    RU     
JL45                               B77W                 ADSB   JA735J HND    CDG    JL     
RU405                              B748                 ADSB   VQ-BLQ SVO    MXP    RU     
N5169J                             C340                 ADSB   N5169J                      
RW4458                             E75L                 ASDI          NAS    MIA    RW     
EY151                              B77W                 ASDI   A6-ETG AUH    ORD    EY     
FR7620                             B738                 ADSB   EI-EKO CPH    KUN    FR     
SN359                              A333                 ADSB   OO-SFV BRU    LAD    SN     
AD2568                             AT76                 ADSB   PR-AQP VCP    MGF    AD     
EY62                               A320                 ADSB   A6-EIV MSQ    AUH    EY     
ECA73D                             C25A                 ADSB   D-ICMS                      
SN2810                             A319                 ADSB   OO-SSU PRG    BRU    SN     
MH1058                             B738                 ADSB   9M-MLE JHB    KUL    MH     
TP1231                             A320                 ADSB   CS-TNK DME    LIS    TP     
RW3405                             E170                 ADSB   N722YX BWI    EWR    RW     
BA846                              A320                 ADSB   G-EUUC LHR    WAW    BA     
PS807                              B738                 ADSB   UR-PSM KBP    PRG    PS     
VJT448                             CL35                 ADSB   9H-VCG                      
QZ508                              A320                 ADSB   PK-AXE DPS    SIN    QZ     
OA334                              A320                 ADSB   SX-DGX ATH    CHQ    OA     
BT798                              BCS3                 ADSB   YL-CSG AUH    RIX    BT     
OS153                              A320                 ADSB   OE-LBW VIE    DUS    OS     
FR8343                             B738                 ADSB   EI-DAI STN    OPO    FR     
GTIMI                              NG5                  ADSB   G-TIMI                      
EK398                              B77W                 ADSB   A6-EGX DXB    DPS    EK     
VN1266                             A321                 ADSB   VN-A338SGN    VII    VN     
DITRA                              C525                 MLAT   D-ITRA                      
LY333                              B738                 ADSB   4X-EKS TLV    BRU    LY     
N589H                              P180                 ASDI   N589H  KPNE   PIE           
AA3974                             CRJ9                 ADSB   N919XJ BGR    JFK           
SN371                              A333                 ADSB   OO-SFX BRU    DLA    SN     
RV1670                             B763                 ADSB   C-FMWP YYZ    MCO    RV     
AD5066                             A20N                 ADSB   PR-YRJ VCP    MAO    AD     
AA854                              A320                 ASDI   N118US BOS    PHL    AA     
BA886                              A320                 ADSB   G-EUYA LHR    OTP    BA     
PQ39                               A320                 ADSB   RP-C8972ICN    KLO    PQ     
UA396                                                   OCEA          HNL    SFO    UA     
OZ703                              A333                 ESTI   HL7746 ICN    MNL    OZ     
SA8678                             RJ85                 ADSB   ZS-SSJ CPT    PRY    SA     
AK857                              A20N                 ADSB   9M-AGN CNX    KUL    AK     
7C168                              B738                 ADSB   HL8049 CJU    GMP    7C     
LH2415                             A321                 ADSB   D-AIRW ARN    MUC    LH     
OO3321                             E170                 ADSB   N185SY LGA    DAL    OO     
SK939                              A333                 ESTI   LN-RKR ARN    LAX    SK     
AHO739X                            E550                 ADSB   D-BEER               HH     
EV4032                             E45X                 ASDI          YOW    EWR    EV     
EY462                              B789                 ESTI   A6-BLP AUH    MEL    EY     
UA1685                             B752                 ASDI   N17133 LIH    DEN    UA     
EZY808D                            A320                 ADSB   YL-LCS               U2     
SPCUG                              ZZZZ                 ADSB   I-PDVE                      
EK528                              B77W                 ESTI   A6-EGQ DXB    HYD    EK     
WN358                              B738                 ASDI   N8504G JAX    BNA    WN     
LO156                              B738                 ADSB   SP-LWA TLV    WAW    LO     
EY29                               A332                 ADSB   A6-EYF AUH    DUS    EY     
KE631                              A333                 ADSB   HL7587 ICN    CEB    KE     
QR8441                             B77L                 ADSB   A7-BFE CDG    DOH    QR     
IJ624                              B738                 ADSB   JA02GR HIJ    NRT    IJ     
AC873                              B77W                 OCEA   C-FITW FRA    YYZ    AC     
CX44                               B744                 ESTI   B-LIE  DEL    HYD    CX     
DJ169                              B738                 ADSB   VH-YIM AKL    MEL    DJ     
UA179                              B772                 ADSB   N77019 EWR    HKG    UA     
DL135                              A333                 ESTI   N813NW AMS    DTW    DL     
AD4981                             E195                 ADSB   PR-AUO REC    SSA    AD     
FD450                              A320                 ADSB   HS-BBF UTP    MFM    FD     
ZW3831                             CRJ2                 MLAT   N453AW COU    ORD    ZW     
PG946                              A319                 ADSB   HS-PGT LPQ    BKK    PG     
MEDIC45                            LJ45                 ADSB   VH-PFS                      
EN8219                             E195                 ADSB   I-ADJQ BRI    MUC    EN     
HO1325                             A320                 ADSB   B-6949 PVG    CNX    HO     
ZF2422                             B752                 ESTI   VP-BYC UTP    KJA    ZF     
IRVRP                              C525                 ADSB   I-RVRP                      
5X672                              A306                 ADSB   N131UP SGF    ICT    5X     
CA776                              A332                 ADSB   B-5925 SYD    PVG    CA     
CX873                              B77W                 ASDI   B-KPN  SFO    HKG    CX     
MI354                              B738                 ADSB   9V-MGN SIN    PEN    MI     
AA95                               B763                 ESTI   N348AN MAD    JFK    AA     
NH835                              B788                 ESTI   JA803A NRT    CGK    NH     
AD5101                             A20N                 ADSB   PR-YRL REC    VCP    AD     
IW1812                             AT75                 ADSB   PK-WFO JOG    SUB    IW     
BA2037                             B772                 ADSB   G-VIIT LGW    MCO    BA     
UT550                              B738                 ADSB   VQ-BQP IGT    VKO    UT     
DL405                              A333                 ESTI   N802NW CDG    JFK    DL     
HA17                               A332                 OCEA   N381HA LAS    HNL    HA     
                                   A20N                 ADSB   N308FR                      
UA6194                             E75L                 ADSB   N88359 PIT    IAD    YV     
GA676                              B738                 ADSB   PK-GMC UPG    JOG    GA     
MM140                              A320                 ADSB   JA819P SDJ    KIX    MM     
KK2173                             A321                 ADSB   TC-ATE IST    CDG    KK     
AH2007                             B736                 ADSB   7T-VJQ MAD    ALG    AH     
SG172                              B738                 ADSB   VT-SLE GOI    DEL    SG     
US5388                             CRJ9                 ADSB   N585NN HPN    CLT    US     
B623                               A320                 ADSB   N945JT JFK    LAX    B6     
LH1825                             E195                 ADSB   D-AEBC BIO    MUC    LH     
CHX36                              EC35                 ADSB   D-HRTA                      
EDV3808                            CRJ9                 ADSB   N335PQ BUF    JFK           
MH112                              B738                 ADSB   9M-MXL KUL    DAC    MH     
TP217                              A332                 ADSB   CS-TOL LIS    BOS    TP     
HA50                               A332                 ASDI   N383HA HNL    JFK    HA     
LH1976                             A320                 ADSB   D-AIPL MUC    MLA    LH     
IMG107                             SR22                 ASDI          LZU    DNL           
MU5771                             A320                 ESTI   B-6638 KMG    CAN    MU     
UT874                              B738                 ADSB   VQ-BJH EVN    VKO    UT     
BLOCKED                            F2TH                 ADSB   BLOCKEDATL    RIC           
AA1983                             A320                 ASDI          MSP    CLT    AA     
5X904                              B763                 ASDI   N350UP SDF    LAX    5X     
G31786                             B738                 ADSB   PR-GXJ BSB    BPS    G3     
QF7340                             B733                 ADSB   VH-XMR               QF     
                                   E170                 MLAT   N104HQ                      
9W793                              AT75                 ADSB   VT-JCV DEL    IDR    9W     
DL2222                                                  OCEA          OGG    LAX    DL     
EY871                              B789                 ADSB   A6-BLD NRT    AUH    EY     
EW121                              A332                 ADSB   D-AXGD HKT    CGN    EW     
WN686                              B737                 ASDI          IND    MCI    WN     
CO386                              A319                 ADSB   5B-DCV LCA    CDG    CO     
RJ107                              A319                 ADSB   JY-AYM AMM    BCN    RJ     
LO196                              B738                 ADSB   SP-LWB TSE    WAW    LO     
LR638                              A320                 ADSB   N684TA SJO    SAL    LR     
JT940                              B738                 ADSB   PK-LOQ BDJ    BPN    JT     
RS7541                             E75S                 ASDI   C-FEJY ATL    YYZ    RS     
BW727                              B738                 ASDI   9Y-TAB JFK    GEO    BW     
N518TS                             BE9L                 ADSB   N518TS BOI    BOI           
DE1024                             A321                 ADSB   YL-LCQ MUC    HRG    DE     
JL759                              B788                 ESTI   JA834J NRT    SGN    JL     
WN3064                             B738                 ADSB   N8671D BDL    MDW    WN     
W67673                             A320                 ADSB   HA-LYC KSC    LTN    W6     
G8497                              A20N                 ADSB   VT-WGG BOM    LKO    G8     
VN1188                             A321                 ADSB   VN-A334SGN    HPH    VN     
LH312                              E195                 ADSB   I-ADJU FRA    FLR    LH     
LH1613                             E195                 ADSB   D-AEME WAW    MUC    LH     
                                   A320                 ADSB   B-6878                      
AA728                              A333                 ADSB   N275AY PHL    LHR    AA     
TK2415                             B739                 ADSB   TC-JYG AYT    IST    TK     
CN7169                             B738                 ADSB   B-5539 SYX    HRB    CN     
BA80                               B789                 ADSB   G-ZBKC MCT    LHR    BA     
FR3073                             B738                 ADSB   EI-FOK CIA    STN    FR     
JW108                              A320                 ADSB   JA11VA TPE    NRT    JW     
SU2137                             A320                 ADSB   VP-BLR IST    SVO    SU     
AD5721                             AT76                 ADSB   PR-AKD REC    NAT    AD     
WN875                              B737                 ASDI          DTW    MDW    WN     
                                                        MLAT                               
NXZ                                B06                  ADSB   VH-NXZ                      
FY1004                             AT75                 ADSB   9M-FYC PEN    KBR    FY     
Y97054                             MD83                 ADSB   EP-LCN KIH    THR    Y9     
HBZWW                              H500                 MLAT   HB-ZWW                      
GA420                              B738                 ADSB   PK-GFX CGK    DPS    GA     
N733DC                             B190                 ASDI   N733DC SYR    BED           
1L336                              E55P                 ADSB   N336QS MIA    ECP    1L     
5X1152                             MD11                 ADSB   N250UP SDF    PIT    5X     
TP372                              A320                 ADSB   CS-TNH LIS    LHR    TP     
AS7097                             B734                 ESTI          SEA    ANC    AS     
FR8111                             B738                 ADSB   EI-FRH PMF    CAG    FR     
RW6013                             E170                 MLAT   N212JQ LGA    DFW    RW     
CM364                              B738                 ESTI   HP-1831CMPEZE    PTY    CM     
SC4757                             B738                 ADSB   B-5351 FOC    PEK    SC     
DL1744                             B712                 MLAT   N937AT IND    MCO    DL     
EDV3306                            CRJ2                 ASDI          CSG    ATL           
U2192                              A319                 ADSB   G-EZEB BHX    BFS    U2     
G8697                              A20N                 ADSB   VT-WGA SXR    DEL    G8     
ZW4205                             CRJ2                 ASDI   N462AW ORF    PHL    ZW     
MQ3356                             E135                 ASDI          CVG    DFW    MQ     
AA2428                             B738                 ASDI   N968AN RDU    DFW    AA     
LH686                              A321                 ADSB   D-AIDJ FRA    TLV    LH     
OD183                              B739                 ADSB   9M-LNG KTM    KUL    OD     
BLOCKED                            GLF5                 ADSB   BLOCKED                     
CA1418                             B738                 ADSB   B-5572 KWE    TSN    CA     
AZ1314                             A321                 ADSB   EI-IXH BLQ    FCO    AZ     
MU2377                             A319                 ADSB   B-6427 CTU    YNT    MU     
OO4993                             CRJ2                 ASDI          SBN    ATL    OO     
ARE4051                            A320                 ADSB   CC-BAW                      
AA1841                             E190                 ASDI   N967UW LGA    PHL    AA     
MF8002                             B738                 ESTI   B-1707 BKI    PEK    MF     
S7895                              A319                 ADSB   VP-BTX DME    TXL    S7     
PRLCR                              S76                  ADSB   PR-LCR                      
MU758                              B737                 ADSB   B-5819 KTM    KMG    MU     
KL1155                             E190                 MLAT   PH-EXD AMS    GOT    KL     
AC1810                             B763                 ADSB   C-FMWV YYZ    CUN    RV     
JJ3515                             A321                 ADSB   PT-MXE REC    GRU    JJ     
OZ751                              A333                 ADSB   HL7794 ICN    SIN    OZ     
WN403                              B737                 ASDI   N787SA BWI    BOS    WN     
JJ3086                             A321                 ADSB   PT-MXJ GIG    FOR    JJ     
DJ1383                             B738                 ADSB   VH-YFX LST    MEL    DJ     
TK8                                A333                 ADSB   TC-JOK IAD    IST    TK     
U26006                             A319                 ADSB   G-EZDN FAO    BRS    U2     
CX138                              B77W                 ADSB   B-KQF  SYD    HKG    CX     
N10QW                              BE20                 ASDI   N10QW  LEX    KHZL          
FR2673                             B738                 ADSB   EI-EPE CIA    STN    FR     
FR171                              B738                 ADSB   EI-FEI ATH    SXF    FR     
EI144                              A332                 ESTI   EI-LAX LAX    DUB    EI     
JT693                              B739                 ADSB   PK-LJI SUB    CGK    JT     
OO4824                             CRJ9                 ASDI          GFK    MSP    OO     
WK5403                             A320                 ADSB   HB-IJW               WK     
AC37                               B789                 OCEA   C-FRSR YVR    MEL    AC     
CA1597                             B738                 ADSB   B-1909 PEK    WEH    CA     
AS20                               B739                 ASDI   N306AS SEA    ORD    AS     
BND82K                             S92                  ADSB   G-VING                      
5X15                               B744                 ADSB   N574UP BOM    CGN    5X     
TG954                              B77W                 ESTI   HS-TKP BKK    FRA    TG     
TR869                              B788                 ADSB   9V-OFJ DMK    SIN    TR     
W8571                              B763                 ASDI   C-FPIJ YYC    YVR    W8     
CHH7264N                            B738                 ADSB   B-5733               HU     
GB510                              B762                 ADSB   N767AX CVG    ATL    GB     
N4125G                             C340                 ASDI   N4125G FAT    FAT           
9U893                              A319                 ADSB   ER-AXM KIV    MXP    9U     
SU2091                             B738                 ADSB   VP-BNQ BEG    SVO    SU     
QK602                              DH8A                 ASDI          YSB    YYZ    QK     
Y4899                              A320                 ADSB   XA-VOV LAX    BJX    Y4     
N443PR                             GLEX                 ESTI   N443PR LAS    ICT           
SSP77                              S76                  MLAT   M-AKAR                      
VJ5348                             A321                 ADSB   VN-A638SGN    CXR    VJ     
AA9243                             B789                 ASDI   N828AA SYD    LAX    AA     
UA908                              B763                 ESTI   N642UA AMS    ORD    UA     
G8520                              A20N                 ADSB   VT-WGC BLR    BOM    G8     
GA869                              B738                 ADSB   PK-GFM BKK    CGK    GA     
EK211                              B77W                 ADSB   A6-EQA DXB    IAH    EK     
TR509                              B788                 ESTI   9V-OFH ATQ    SIN    TR     
OS425                              A320                 ADSB   OE-LBP VIE    NCE    OS     
FR1978                             B738                 ADSB   EI-FTI DUB    LCJ    FR     
AA1670                             A319                 ASDI          MSY    CLT    AA     
AC847                              B789                 ADSB   C-FNOI MUC    YYZ    AC     
CA945                              A332                 ESTI   B-6132 PEK    ISB    CA     
FX1459                             A310                 ADSB   N801FD MEM    LBB    FX     
MT486                              A321                 ADSB   G-TCDC MAN    HRG    MT     
G31551                             B738                 ADSB   PR-GGF REC    CGH    G3     
OOBTJ                              BALL                 ADSB   OO-BTJ                      
AA645                                                   OCEA          OGG    PHX    AA     
CM303                              B738                 ESTI   HP-1846CMPLAX    PTY    CM     
F91777                             A320                 ESTI          TTN    MCO    F9     
KA456                              A333                 ADSB   B-LBE  HKG    KHH    KA     
AI992                              B77W                 ADSB   VT-ALT JED    DEL    AI     
MU2286                             A320                 ADSB   B-9900 WEH    SHA    MU     
KL935                              B738                 ADSB   PH-BXF AMS    DUB    KL     
9W2401                             AT75                 ADSB   VT-JCU HYD    BLR    9W     
GA77                               B738                 ADSB   PK-GFU TKG    CGK    GA     
XJ709                              A333                 ESTI   HS-XTF ICN    DMK    XJ     
FR2683                             B738                 ADSB   EI-DHT MAD    STN    FR     
DR6554                             B738                 ADSB   B-7867               DR     
O66218                             A320                 ADSB   PR-ONS GIG    BSB    O6     
QT710                              A332                 ESTI   N335QT BOG    MIA    QT     
B6436                              A321                 ADSB   N948JB STI    JFK    B6     
FR1694                             B738                 ADSB   EI-EVR GDN    VDA    FR     
KA974                              A320                 ADSB   B-HSD  HKG    PEK    KA     
FM9478                             B737                 ADSB   B-5826 LHW    CGO    FM     
LU289                              A321                 ESTI   CC-BED PMC    PUQ    LU     
BR228                              A333                 ADSB   B-16335KUL    TPE    BR     
UX1516                             B738                 ADSB   EC-IDT MUC    MAD    UX     
US5532                             CRJ9                 ADSB   N596NN GSP    CLT    US     
MF824                              B738                 ESTI   B-1708 KUL    XMN    MF     
AI244                              A320                 ADSB   VT-EXB KBL    DEL    AI     
SV239                              A320                 ADSB   HZ-ASB RUH    GVA    SV     
SL517                              B738                 ADSB   HS-LUQ CNX    DMK    SL     
HX239                              A359                 ADSB   B-LGB  SHA    HKG    HX     
WK214                              A320                 ADSB   HB-JLT ZRH    TFS    WK     
CU130                              A320                 ADSB   LY-VEQ HAV    MEX    CU     
AA346                              MD83                 ESTI          JAX    DFW    AA     
ZH9724                             B738                 ESTI   B-1757 SYX    WNZ    ZH     
AF1273                             E170                 ESTI   F-HBXM ABZ    CDG    AF     
LH1348                             A319                 ADSB   D-AILH FRA    WAW    LH     
JJ3279                             A320                 ADSB   PR-MYJ CGB    CGH    JJ     
MRA703                             C208                 ASDI          RDU    EDE           
NZ177                              B789                 ESTI   ZK-NZK AKL    PER    NZ     
ZH9692                             A320                 ADSB   B-8079 CGQ    CAN    ZH     
N7230H                             BE9L                 ASDI   N7230H KVPC   KBLM          
KA904                              A333                 ADSB   B-HYQ  HKG    PEK    KA     
AF1888                             A319                 ADSB   F-GRHU CDG    OTP    AF     
AZ159                              A320                 ADSB   EI-IKU BRU    FCO    AZ     
IA124                              B738                 ADSB   YI-ASV DXB    BGW    IA     
PR682                              A333                 ADSB   RP-C8765MNL    DMM    PR     
FX5391                             B77L                 ADSB   N888FD               FX     
QK705                              DH8A                 ASDI          YZV    YQB    QK     
6E466                              A320                 ADSB   VT-IDX BLR    HYD    6E     
ARY4002                            A319                 ADSB   701                         
FR4105                             B738                 ADSB   EI-FZY WRO    GDN    FR     
BLOCKED                            PC12                 ADSB   BLOCKED                     
FE3059                             AT76                 ADSB   B-28068RMQ    MZG    FE     
B62283                             E190                 ASDI   N236JB BOS    RDU    B6     
LX1270                             A320                 ADSB   HB-IJM ZRH    CPH    LX     
SQ317                              A388                 ADSB   9V-SKJ LHR    SIN    SQ     
ET8725                             B738                 ADSB   ET-AQO               ET     
9W451                              B739                 ADSB   VT-JBZ BOM    HYD    9W     
GA415                              B738                 ADSB   PK-GMS DPS    CGK    GA     
DL406                              B739                 ADSB   N831DN JFK    ATL    DL     
WN931                              B738                 ADSB   N8649A FLL    MDW    WN     
AZ121                              A320                 ADSB   EI-DTO AMS    LIN    AZ     
DENUU                              C152                 MLAT   D-ENUU                      
NK910                              A320                 ADSB   N647NK MCO    ORD    NK     
NWK2653                            F100                 ADSB   VH-NHO ZNE    PER           
KE26                               B77W                 OCEA   HL8041 SFO    ICN    KE     
JL266                              B738                 ADSB   JA314J HIJ    HND    JL     
WS735                              B737                 ADSB   C-FUWS YXU    YYC    WS     
FR8362                             B738                 ADSB   EI-DPZ SVQ    STN    FR     
UA1706                                                  OCEA          ITO    LAX    UA     
WN960                              B737                 ADSB   N937WN TPA    FLL    WN     
TB4974                             E190                 ADSB   OO-TEA FEZ    CRL    TB     
IFL8364                            FA20                 ASDI          MSP    KTVF          
WZ4283                             A321                 ADSB   VP-BRS               WZ     
OO7365                             CRJ2                 ASDI          ABR    MSP    OO     
XQ972                              B738                 ADSB   TC-SNU ADB    STR    XQ     
JL193                              B738                 ADSB   JA348J HND    KMQ    JL     
CI5148                             B744                 ADSB   B-18720ANC    ORD    CI     
LH1034                             A320                 ADSB   D-AIZI FRA    CDG    LH     
FD524                              A320                 ADSB   HS-ABZ HKT    HKG    FD     
LS177                              B738                 ADSB   G-JZHZ GLA    ALC    LS     
EW8462                             A319                 ADSB   D-AKNN TXL    LHR    EW     
KL1534                             E75L                 ADSB   PH-EXM MME    AMS    KL     
FR1182                             B738                 ADSB   EI-DYW SNN    LGW    FR     
SU1506                             B738                 ADSB   VP-BCG SVO    TJM    SU     
C54906                             E45X                 MLAT   N21154               C5     
QR180                              B788                 ADSB   A7-BCA OSL    DOH    QR     
KL565                              B744                 ADSB   PH-BFH AMS    NBO    KL     
SN2824                             A319                 ADSB   OO-SSA BUD    BRU    SN     
JL66                               B788                 OCEA   JA835J NRT    SAN    JL     
9W809                              B738                 ESTI   VT-JGT DEL    BLR    9W     
BA794                              A320                 ADSB   G-EUYI LHR    HEL    BA     
5X956                              B752                 ASDI   N418UP RFD    KMHR   5X     
EW9025                             DH8D                 MLAT   D-ABQG DRS    DUS    EW     
OZ105                              B763                 ADSB   HL7248 NRT    ICN    OZ     
GA426                              A333                 ADSB   PK-GPY CGK    DPS    GA     
HO1143                             A320                 ADSB   B-6619 PVG    KWE    HO     
LH970                              E190                 ADSB   D-AECA FRA    ABZ    LH     
LNX70HY                            E35L                 MLAT   G-HUBY LCY    EDI           
JU380                              A319                 ADSB   YU-APE BEG    LHR    JU     
QF93                               A388                 OCEA   VH-OQI MEL    LAX    QF     
UA85                               B772                 ADSB   N76021 TLV    EWR    UA     
CA937                              B77W                 ADSB   B-2035 PEK    LHR    CA     
NP105                              A320                 ADSB   SU-BQJ CAI    ELQ    NP     
BE532                              DH8D                 MLAT   G-ECOF GLA    EXT    BE     
TB4295                             B738                 ADSB   OO-JAF ORY    AGA    TB     
N100RZ                             S22T                 MLAT   N100RZ                      
BR820                              A321                 ADSB   B-16212MFM    RMQ    BR     
BX8024                             A321                 ADSB   HL7210 CJU    GMP    BX     
3U8910                             A332                 ADSB   B-6518 AKL    CTU    3U     
MN6309                             B738                 ADSB   ZS-ZWG CPT    DUR    MN     
AA408                              A321                 ADSB   N586UW PHX    MIA    AA     
TJ212                                                   ASDI                        TJ     
N210CM                             C560                 ASDI   N210CM MKL    RIC           
US4895                             E145                 ASDI   N695AE GRR    PHL    US     
HU7876                             B738                 ADSB   B-7619 ZUH    WUH    HU     
EK782                              B77L                 ADSB   A6-EWF LOS    DXB    EK     
QR95                               A359                 ADSB   A7-ALR DOH    ZRH    QR     
                                   A320                 ADSB   B-6673                      
CZ3110                             A333                 ADSB   B-8365 PEK    CAN    CZ     
BR9                                B77W                 ESTI   B-16739YVR    TPE    BR     
W61743                             A321                 ADSB   HA-LXN GDN    TRF    W6     
                                   A321                 ADSB   VN-A687                     
AER41                              B190                 ASDI          ANC    JNU           
AA723                              A332                 ESTI   N281AY DUB    PHL    AA     
EY303                              A321                 ADSB   A6-AEG AUH    KWI    EY     
IBE32ZA                            A321                 ADSB   EC-JZM MAD    FCO    IB     
BV2120                             B734                 ADSB   EI-FVA REG    LIN    BV     
G8132                              A320                 ADSB   VT-GOQ PAT    DEL    G8     
BLOCKED                            CL30                 ASDI   BLOCKEDPIT    MEM           
BLOCKED                            S92                  ADSB   BLOCKED              CG     
AA693                              A332                 ESTI          HNL    PHX    AA     
AAL538R                            B738                 ASDI          BOS    MIA    AA     
AX4356                             E145                 ASDI          RDU    DCA    AX     
RW4683                             E170                 ADSB   N422YX XNA    LGA    RW     
                                   B77W                 ADSB   TC-JJM                      
                                   DA42                 ADSB   OY-OMM                      
DL2290                             MD88                 ASDI   N951DL PIT    ATL    DL     
U24063                             A320                 ADSB   G-EZRM ORY    NCE    U2     
GK210                              A320                 ADSB   JA16JJ KIX    NRT    GK     
9W721                              B738                 ESTI   VT-JFR DEL    GAU    9W     
SK708                              CRJ9                 ADSB   EI-FPS ARN    HEL    SK     
NH827                              B789                 ESTI   JA837A NRT    DEL    NH     
OO5004                             CRJ2                 ASDI          EAU    ORD    OO     
CA4110                             A332                 ADSB   B-6071 PEK    CTU    CA     
NL702                              A320                 ESTI   AP-BLI MED    MUX    NL     
AK174                              A20N                 ADSB   9M-NEO KUL    CSX    AK     
G8262                              A320                 ADSB   VT-GOL LKO    CCU    G8     
D7346                              A333                 ADSB   9M-XBB KUL    XIY    D7     
6R952                              A306                 MLAT   XA-GGL CVG    MEX    6R     
WS3403                             DH8D                 ADSB   C-GLWJ YQB    YYZ    WR     
RJ264                              B788                 ADSB   JY-BAF ORD    AMM    RJ     
S710                               A319                 ADSB   VP-BHF CEK    DME    S7     
TK6                                B77W                 ADSB   TC-LJC ORD    IST    TK     
N618KS                             PC12                 MLAT   N618KS SGF    YKF           
MQ3933                             E145                 ASDI          ATW    ORD    MQ     
CA1853                             B738                 ESTI   B-5422 PEK    NGB    CA     
U24485                             A319                 ADSB   G-EZAI LYS    FAO    U2     
FR311                              B738                 ADSB   EI-GDI CRL    TSR    FR     
LH1703                             A320                 ADSB   D-AIWA SOF    MUC    LH     
DL1447                             A320                 MLAT   N340NW LGA    ATL    DL     
BEL25J                             SU95                 ADSB   EI-FWC BLL    BRU    SN     
DD7113                             B738                 ADSB   HS-DBU HDY    DMK    DD     
EW2005                             A319                 ADSB   D-AKNH TXL    STR    EW     
MH140                              A333                 ADSB   9M-MTO SYD    KUL    MH     
6E197                              A320                 ADSB   VT-IFV SXR    DEL    6E     
L71833                             B763                 ESTI   N418LA MIA    MDE    L7     
TG922                              B77W                 ESTI   HS-TKQ BKK    FRA    TG     
LY346                              B739                 ADSB   4X-EHD GVA    TLV    LY     
QR99                               A359                 ADSB   A7-ALN DOH    GVA    QR     
DL259                              A333                 ESTI   N810NW AMS    BOS    DL     
CZ6716                             A332                 ADSB   B-6077 PEK    SYX    CZ     
AA201                              B738                 MLAT   N973AN PHL    ORD    AA     
GA324                              B738                 ADSB   PK-GFT CGK    SUB    GA     
TU363                              A320                 ADSB   TS-IMD BLQ    TUN    TU     
D85952                             B738                 ADSB   EI-FJZ LPA    DUS    D8     
I35645                             B735                 ADSB   EP-TAG TBZ    THR    I3     
DL964                              A320                 MLAT   N321US LGA    DTW    DL     
ZF7734                             B763                 ADSB   VQ-BUP HKT    DME    ZF     
U26794                             A320                 ADSB   G-EZTV FAO    BFS    U2     
AD4322                             AT76                 ADSB   PR-TKJ VCP    PPB    AD     
QR852                              A333                 ADSB   A7-ACM DOH    KUL    QR     
WN3                                B737                 ADSB   N7705A LBB    DAL    WN     
SK1777                             A20N                 ADSB   LN-RGN CPH    FAE    SK     
AX4353                             E145                 MLAT   N606AE DCA    RDU    AX     
DL61                               B764                 ADSB   N825MH ATL    GIG    DL     
AA1431                             B738                 ASDI          BWI    PHX    AA     
CA823                              B738                 ESTI   B-5312 PEK    CNX    CA     
D85950                             B738                 ADSB   EI-FJX LPA    HAM    D8     
SU2403                             A320                 ADSB   VQ-BCN FCO    SVO    SU     
NK103                              A319                 ADSB   N504NK BOS    MYR    NK     
BA7                                B77W                 ADSB   G-STBF LHR    HND    BA     
AF232                              A345                 SATE   CS-TFX CDG    PTP    AF     
SQ51                               A359                 ADSB   9V-SMR MAN    SIN    SQ     
3H832                              DH8C                 ASDI          YUL    YQB    3H     
AR1240                             B738                 ADSB   LV-FQB AEP    GRU    AR     
TO4896                             B738                 ADSB   F-GZHR LYS    TLV    TO     
US4879                             E145                 ASDI          CAE    CLT    US     
N8116N                             B350                 ADSB   N8116N PDK    PHF           
EY24                               A332                 ADSB   A6-EYS DUS    AUH    EY     
CV756                              B748                 ADSB   LX-VCE LUX    BAH    CV     
CV612                              B744                 ESTI   LX-UCV LUX    HKG    CV     
KQ761                              B788                 ESTI   5Y-KZF JNB    NBO    KQ     
K4502                              B763                 ESTI   N284DH CVG    DFW    K4     
TK40                               B738                 ADSB   TC-JGF IST    JNB    TK     
NH8517                             B763                 ADSB   JA603A NRT    PVG    NH     
B6559                              A320                 ADSB   N632JB JFK    KIN    B6     
AF267                              B772                 ADSB   F-GSPD ICN    CDG    AF     
IBE31PE                            A321                 ADSB   EC-IGK MAD    ATH    IB     
PKW730                             SW4                  ASDI          ELP    MLI           
MD19                               A343                 ADSB   5R-EAA CAN    RUN    MD     
AA953                              B77W                 ADSB   N732AN JFK    EZE    AA     
TU751                              A320                 ADSB   TS-IMS LYS    TUN    TU     
WY609                              E170                 ADSB   A4O-EB MCT    DXB    WY     
HK5120                             C25C                 ADSB   HK-5120              HK     
SN2258                             A319                 ADSB   OO-SSI CPH    BRU    SN     
EK979                              B77W                 ADSB   A6-EBW DXB    IKA    EK     
D7505                              A333                 ESTI   9M-XXE ICN    KUL    D7     
G8214                              A320                 ADSB   VT-WAF DEL    LKO    G8     
NH811                              B763                 ESTI   JA613A NRT    HKG    NH     
F91462                             A320                 ADSB   N207FR ATL    LGA    F9     
EV5407                             CRJ7                 MLAT   N717EV GSO    LGA    EV     
JT385                              B738                 ESTI   PK-LPO KNO    CGK    JT     
FX1423                             MD11                 ADSB   N601FE MEM    SEA    FX     
EV5571                             CRJ7                 MLAT   N709EV RIC    BOS    EV     
FD3233                             A20N                 ADSB   HS-BBX DMK    URT    FD     
FR33                               B738                 ADSB   EI-DYC TRF    STN    FR     
OO4837                             CRJ9                 ADSB   N809SK BIS    MSP    OO     
ZH9108                             B739                 ADSB   B-5103 PEK    SZX    ZH     
CA1987                             A320                 ADSB   B-6676 WNZ    KMG    CA     
CCA438D                            A319                 ADSB   B-6034               CA     
DL2195                             B712                 ASDI          SAT    SLC    DL     
HU7948                             B738                 ADSB   B-1786 TPE    HAK    HU     
5X1122                             B752                 ADSB   N410UP BDL    ALB    5X     
0B5516                             B738                 ADSB   YR-BMH FCO    LPL    0B     
AFR58FY                            CRJ7                 ADSB   F-GRZM AMS    RNS    AF     
PD212                              DH8D                 ADSB   C-GKQE YQM    YOW    PD     
AI890                              A321                 ADSB   VT-PPL GAU    DEL    AI     
TK2222                             B738                 ADSB   TC-JGN IST    GZT    TK     
N343SC                             H25B                 ASDI   N343SC BED    MSN           
AI248                              A319                 ADSB   VT-SCS KTM    CCU    AI     
3Z7300                             B738                 ADSB   OK-TSE WAW    FUE    3Z     
BA242                              B789                 ESTI   G-ZBKH MEX    LHR    BA     
G31387                             B737                 ADSB   PR-GEA VIX    CGH    G3     
UA22                               B772                 ESTI   N77006 DUB    EWR    UA     
ID7309                             A320                 ADSB   PK-LUG HLP    DPS    ID     
OU471                              A319                 ADSB   9A-CTI CDG    ZAG    OU     
                                   SR22                 ADSB   N456LE                      
JP794                              F100                 ADSB   9A-BTE TIA    FRA    JP     
CA855                              A332                 ADSB   B-6073 PEK    LHR    CA     
QR1                                A359                 ADSB   A7-ALF DOH    LHR    QR     
SDR3172                            A320                 ADSB   D-ASEF TXL    LPA           
FR1531                             B738                 ADSB   EI-EBC ATH    FRA    FR     
LH729                              A388                 ESTI   D-AIMD PVG    FRA    LH     
QR920                              B77L                 ESTI   A7-BBH DOH    AKL    QR     
VY1985                             A321                 ADSB   EC-MHA ORY    OPO    VY     
PC3060                             B738                 ADSB   TC-IZI ADB    MQM    PC     
AA520                              A321                 ADSB   N563UW LAX    PHL    AA     
OO5252                             E170                 ADSB   N103SY RIC    ORD    OO     
EV4092                             E145                 MLAT   N12563 CAK    EWR    EV     
EK242                              A388                 ADSB   A6-EUH YYZ    DXB    EK     
TK1486                             B738                 ADSB   TC-JHR BLL    IST    TK     
ZH9058                             B738                 ADSB   B-1936 KIX    WUX    ZH     
SN601                              A332                 ADSB   OO-SFZ BRU    BOM    SN     
U22915                             A320                 ADSB   G-EZPF MXP    LUZ    U2     
DEIMZ                              C172                 ADSB   D-EIMZ                      
EK9906                             B77L                 ADSB   A6-EFL CPH    DWC    EK     
OO7370                             CRJ2                 ASDI          BJI    MSP    OO     
KM479                              A320                 ADSB   9H-AEN CDG    MLA    KM     
KL623                              B772                 OCEA   PH-BQC AMS    ATL    KL     
SV2071                             B744                 ESTI   TF-AAM SUB    MED    SV     
DJ1404                             B738                 ADSB   VH-YFN BNE    ADL    DJ     
ROT316K                            B733                 ADSB   YR-BGD               RO     
G31014                             B738                 ADSB   PR-GXU CGH    SDU    G3     
                                   EC30                 MLAT   N922RJ                      
OQ2376                             A319                 ADSB   B-6187               OQ     
5X784                              A306                 ADSB   N140UP SDF    SAT    5X     
UA759                              B739                 ADSB   N66814 MCO    SFO    UA     
S755                               A319                 ADSB   VP-BTV DME    SVX    S7     
FIN4YG                             E190                 ADSB   OH-LKM HAM    HEL    AY     
FX1585                             A306                 ASDI   N685FE MEM    AUS    FX     
HOP71AZ                            CRJ7                 MLAT   F-GRZF               A5     
CA1378                             B77W                 ADSB   B-2952 SYX    PEK    CA     
GA437                              AT76                 ADSB   PK-GAA LOP    DPS    GA     
AS822                                                   OCEA          OGG    PDX    AS     
6E588                              A320                 ADSB   VT-IGS LKO    RPR    6E     
WN1812                             B738                 ASDI          STL    DEN    WN     
NK761                              A319                 ASDI          BWI    ORD    NK     
JL707                              B788                 ESTI   JA825J NRT    BKK    JL     
U26820                             A320                 ADSB   OE-IVL SXF    GLA    U2     
VY3216                             A321                 ADSB   EC-MMH BCN    TFN    VY     
UA2001                             B739                 ADSB   N69847 EWR    ORD    UA     
DX440                              A320                 ADSB   OY-JRK BLL    FUE    DX     
AD5098                             AT76                 ADSB   PR-AQJ CWB    IGU    AD     
BA146                              A321                 ADSB   G-MEDU AMM    LHR    BA     
STK82DR                            AT76                 ADSB   EI-FCZ DUB    BRS    RE     
N888HK                             GLF5                 ADSB   N888HK                      
E47187                             B738                 ADSB   SP-ENN POZ    HRG    E4     
EW9602                             A320                 ADSB   D-AEWJ DUS    LIS    EW     
PG308                              AT76                 ADSB   HS-PZB TDX    BKK    PG     
VJ5307                             A321                 ADSB   VN-A636NGB    CXR    VJ     
DD8127                             DH8D                 ADSB   HS-DQH MAQ    DMK    DD     
TAP207B                            A332                 ADSB   CS-TOF               TP     
OO3142                             CRJ2                 ASDI          FWA    ORD    OO     
W63754                             A320                 ADSB   HA-LWB LTN    CRA    W6     
JD422                              A321                 ESTI   B-8541 CXR    HGH    JD     
GF754                              A321                 ADSB   A9C-CA BAH    KHI    GF     
W61502                             A320                 ADSB   HA-LPS NYO    WAW    W6     
N15D                                                    ASDI   N15D                        
CZ3454                             A321                 ADSB   B-6659 CTU    SZX    CZ     
AI101                              B77W                 ADSB   VT-ALR DEL    JFK    AI     
CVR300                             S92                  ASDI          KGAO   KGAO          
W63003                             A321                 ADSB   HA-LXD OTP    LTN    W6     
MQ3296                             E170                 ESTI   N259NN LEX    DFW    MQ     
KL1344                             E190                 ADSB   PH-EZO BLL    AMS    KL     
SG184                              B738                 ADSB   VT-SGV PNQ    DEL    SG     
BR857                              A321                 ADSB   B-16208TPE    HKG    BR     
TK6480                             A332                 ESTI   TC-JDR FRU    PVG    TK     
                                   CRJ2                 MLAT   N922EV                      
U21491                             A320                 ADSB   G-EZRR GVA    BHX    U2     
TT279                              A320                 ADSB   VH-XUG SYD    MEL    TT     
WN1591                             B38M                 ADSB   N8714Q CMH    BWI    WN     
3O266                              A320                 ADSB   CN-NMH BSL    CMN    3O     
FX1543                             B752                 ADSB   N959FD MEM    MSP    FX     
D82971                             B738                 ADSB   EI-FHE KEF    LGW    D8     
FX1527                             B752                 ADSB   N792FD MEM    CPR    FX     
AZ1166                             A320                 ADSB   EI-IKL SUF    FCO    AZ     
FR5468                             B738                 ADSB   EI-FRJ MAD    FUE    FR     
VY1524                             A320                 ADSB   EC-LVO BCN    RNS    VY     
AF636                              A332                 OCEA   F-GZCA CDG    IAH    AF     
BLOCKED                            GLEX                 ADSB   BLOCKED                     
EV7788                             B190                 ASDI          YDF    YYT    EV     
FR6045                             B738                 ADSB   EI-FZN NDR    CRL    FR     
W8915                              B763                 ADSB   C-FCCJ CVG    YHM    W8     
DEKSF                              P210                 MLAT   D-EKSF                      
U28974                             A319                 ADSB   G-EZFU SOF    LGW    U2     
NJE092W                            C68A                 ADSB   CS-LTD                      
DE2                                B753                 ESTI   D-ABOA HAM    HRG    DE     
JT770                              B738                 ESTI   PK-LJQ CGK    MDC    JT     
OU460                              DH8D                 ADSB   9A-CQF ZAG    ZRH    OU     
YV6114                             E75L                 ADSB   N87353 OKC    IAH    YV     
D7316                              A333                 ADSB   9M-XXH KUL    PEK    D7     
JJ4765                             A321                 ESTI   PT-MXO FOR    GIG    JJ     
RW4537                             E170                 MLAT   N116HQ               RW     
EV5400                             CRJ9                 ASDI   N131EV GSP    DTW    EV     
EY327                              A320                 ADSB   A6-EIO AUH    DMM    EY     
MASRI                              GLEX                 ADSB   M-ASRI                      
DL1368                             A320                 MLAT   N336NW DCA    MSP    DL     
J212                               B763                 ESTI   4K-AZ81DXB    GYD    J2     
AS726                              B739                 ADSB   N413AS BWI    SAN    AS     
                                   E195                 ADSB   PR-AXK                      
EK221                              B77W                 ASDI   A6-EPV DXB    DFW    EK     
SQ222                              A388                 ADSB   9V-SKR SYD    SIN    SQ     
AI111                              B788                 ADSB   VT-ANL DEL    LHR    AI     
AC90                               B77W                 ESTI   C-FIUR YYZ    GRU    AC     
QG822                              A20N                 ADSB   PK-GTA CGK    PKU    QG     
TV9882                             A332                 ADSB   B-8950 SHA    CTU    TV     
AA955                              B738                 ASDI   N962AN RDU    MIA    AA     
FR7329                             B738                 ADSB   EI-EBF LIS    DUB    FR     
UA955                              B788                 ADSB   N45905 TLV    SFO    UA     
5J715                              A320                 ADSB   RP-C3272DVO    SIN    5J     
5X1                                B744                 ADSB   N582UP HKG    CGN    5X     
LH482                              A343                 ADSB   D-AIGW FRA    TPA    LH     
NJE940E                            H25B                 ADSB   CS-DUC                      
CZ3786                             B738                 ADSB   B-5646 WUH    KWE    CZ     
BLOCKED                            B748                 ADSB   BLOCKED                     
KA455                              A320                 ADSB   B-HSM  KHH    HKG    KA     
B78830                             AT76                 ADSB   B-17011KNH    TSA    B7     
XQ9129                             B738                 ADSB   TC-SOG               XQ     
MYX586                             A320                 ADSB   ES-SAP                      
RW4502                             E170                 ADSB   N138HQ ALB    PHL    RW     
N608RS                             SR22                 ASDI   N608RS KFXE   PDK           
KU304                              A320                 ADSB   9K-AKJ BOM    KWI    KU     
FYF2205                            AT75                 ADSB   9M-FYF                      
WS1875                                                  OCEA          LIH    YVR    WS     
LS1229                             B738                 ADSB   G-JZHP BHX    FUE    LS     
UAE43C                             A388                 ADSB   A6-EEP JFK    DXB    EK     
TG677                              A388                 ESTI   HS-TUC NRT    BKK    TG     
WS1119                             B738                 ADSB   C-GXRW LAS    YYZ    WS     
ST4920                             B737                 ESTI   D-AGEP TXL    HRG    ST     
BEL5YZ                             A332                 ESTI   OO-SFY BRU    YYZ    SN     
BLOCKED                            B744                 ADSB   BLOCKED                     
FR1213                             B738                 ADSB   EI-EKB BZG    BHX    FR     
CX830                              B77W                 ESTI   B-KPC  HKG    JFK    CX     
JL711                              B772                 ESTI   JA705J NRT    SIN    JL     
AA2505                             B738                 ADSB   N800NN DCA    ORD    AA     
QR33                               B788                 ADSB   A7-BCZ DOH    BHX    QR     
PR668                              A333                 ADSB   RP-C8760MNL    KWI    PR     
MU787                              A332                 ADSB   B-5937 PVG    FCO    MU     
X32262                             B738                 ADSB   D-ATUG HAJ    LPA    X3     
MU565                              A332                 ADSB   B-6099 PVG    SIN    MU     
9W118                              B77W                 ESTI   VT-JEW BOM    LHR    9W     
BA685                              A320                 ADSB   G-EUUO INN    LHR    BA     
TP103                              A333                 ADSB   CS-TOU LIS    CNF    TP     
LX146                              A333                 ADSB   HB-JHB ZRH    DEL    LX     
ET505                              B788                 ADSB   ET-AOS LAX    DUB    ET     
ET3685                             B77L                 ESTI   ET-APU MAA    ADD    ET     
9W2492                             B738                 ADSB   VT-JBL PNQ    MAA    9W     
OEZRV                              BALL                 ADSB   OE-ZRV                      
ASP820                             E545                 ASDI   C-FLAS KFXE   BGI           
BA855                              A320                 ADSB   G-EUUS PRG    LHR    BA     
EY19                               A388                 ADSB   A6-APC AUH    LHR    EY     
SU2596                             B738                 ADSB   VP-BCD SVO    VCE    SU     
DJ470                              B738                 ADSB   VH-BZG BNE    PER    DJ     
MRA682                             C208                 ADSB   N9761B RDU    ILM           
CZ444                              B77L                 ASDI   B-2081 LAX    PVG    CZ     
AK116                              A20N                 ADSB   9M-AGB KUL    CAN    AK     
XC444                              B738                 ADSB   TC-COR TLV    AYT    XC     
G32008                             B738                 ADSB   PR-GTP GIG    BEL    G3     
BA372                              A319                 ADSB   G-EUPO TLS    LHR    BA     
AZ719                              A320                 ADSB   EI-DTK ATH    FCO    AZ     
CI5                                B77W                 ESTI   B-18052LAX    TPE    CI     
US4908                             DH8A                 ASDI   N837EX EWN    CLT    US     
TB4478                             B738                 ADSB   OO-JAY BOD    TLS    TB     
WN292                              B738                 ADSB   N8618N PVD    MDW    WN     
VTEJZ                              BE9L                 ADSB   VT-EJZ                      
UA761                              A319                 MLAT   N896UA LGA    ORD    UA     
MT1498                             A321                 ADSB   G-TCDL MAN    ACE    MT     
ZH9508                             A320                 ESTI   B-6853 SHA    SZX    ZH     
DL2557                             MD90                 ASDI   N919DN ORF    ATL    DL     
JL615                              B738                 ADSB   JA324J HND    NGS    JL     
FR1071                             B738                 ADSB   EI-DHO EDI    VLC    FR     
SV804                              B77W                 ESTI   HZ-AK28RUH    DAC    SV     
0B142                              B738                 ADSB   YR-BME GLA    OTP    0B     
XY556                              A320                 ESTI   VP-CXT SAW    JED    XY     
G9146                              A320                 ADSB   A6-AOI JED    SHJ    G9     
IBK9ZC                             B738                 ADSB   EI-FJP AAL    AGP    D8     
BA1441                             B763                 ADSB   G-BZHC EDI    LHR    BA     
QR234                              A321                 ADSB   A7-ADS DME    DOH    QR     
FD3372                             A320                 ADSB   HS-BBG DMK    UBP    FD     
PS311                              B738                 ADSB   UR-PSG KBP    MXP    PS     
AD2516                             A332                 ADSB   PR-AIX VCP    REC    AD     
CZ6623                             A321                 ADSB   B-6626 NKG    CGQ    CZ     
FR2581                             B738                 ADSB   EI-EXD AGP    WRO    FR     
AA2487                             B738                 ADSB   N996NN ORD    MIA    AA     
TI502                              B734                 ADSB   TC-TLB TLV    AYT    TI     
FX5230                             B77L                 ADSB   N892FD MEM    ICN    FX     
GF16                               A320                 ADSB   A9C-AN FRA    BAH    GF     
5X844                              MD11                 ADSB   N271UP SDF    SLC    5X     
AF1669                             A319                 ADSB   F-GRXM CDG    KBP    AF     
9W2830                             AT75                 ADSB   VT-JCQ JAI    LKO    9W     
W61135                             A321                 ADSB   HA-LXJ TKU    GDN    W6     
KE12                               A388                 ADSB   HL7627 LAX    ICN    KE     
UA2395                             B738                 ASDI          MIA    EWR    UA     
KA482                              A321                 ADSB   B-HTJ  HKG    TPE    KA     
AC35                               B788                 OCEA   C-GHPU YVR    BNE    AC     
DL1872                             A321                 ASDI   N310DN TPA    ATL    DL     
EDV3758                            CRJ9                 ADSB   N923XJ SAV    LGA           
HO1265                             A321                 ADSB   B-1872 PVG    HRB    HO     
KL1824                             B738                 ADSB   PH-BXH TXL    AMS    KL     
LY322                              B738                 ADSB   4X-EKF MRS    TLV    LY     
AF1854                             A319                 ADSB   F-GRXK CDG    ALG    AF     
AK5213                             A320                 ADSB   9M-AFB KCH    KUL    AK     
                                   E170                 ADSB   JA01FJ                      
DLH8PM                             E195                 ADSB   I-ADJK LHR    MUC    LH     
NH78                               B772                 ADSB   JA745A CTS    HND    NH     
FR3235                             B738                 ADSB   EI-DWY EIN    MAN    FR     
THY3MJ                             A333                 ADSB   TC-LNF MAD    IST    TK     
ID7541                             B738                 ADSB   PK-LBT HLP    JOG    ID     
AF6118                             A320                 ADSB   F-HBNA ORY    TLS    AF     
GLYZA                              G2CA                 ADSB   G-LYZA                      
PS713                              B738                 ADSB   UR-PSU KBP    IST    PS     
SL8016                             B739                 ADSB   HS-LTK DMK    HGH    SL     
MH2529                             B738                 ADSB   9M-MXH KCH    KUL    MH     
AA600                              A321                 ADSB   N912UY FLL    CLT    AA     
QF30                               A333                 ADSB   VH-QPI HKG    MEL    QF     
N24NY                              B407                 ADSB   N24NY                       
AK169                              A320                 ADSB   9M-AHT NNG    KUL    AK     
EW7055                             A319                 ADSB   OK-REQ NUE    HAM    EW     
KE641                              B77W                 ADSB   HL7783 ICN    SIN    KE     
AD4429                             E190                 ADSB   PR-AZE SDU    POA    AD     
MH2522                             B738                 ADSB   9M-MSG KUL    KCH    MH     
5X614                              A306                 ADSB   N147UP LCK    ORD    5X     
DJ8                                B77W                 OCEA   VH-VPF LAX    BNE    DJ     
VV102                              GLF5                 ADSB   166377               VV     
UA178                              B737                 ADSB   N39726 KIX    GUM    UA     
AZ1196                             A319                 ADSB   EI-IMS TRN    REG    AZ     
US5355                             CRJ2                 ADSB   N206PS CAK    CLT    US     
DL866                              MD88                 ADSB   N933DL IAD    ATL    DL     
6E1407                             A320                 ADSB   VT-IAX LKO    SHJ    6E     
T7FBQ                              GL5T                 ADSB   T7-FBQ                      
G8224                              A320                 ADSB   VT-GOM SXR    DEL    G8     
TVF18PA                            B738                 ADSB   F-GZHP OUD    ORY    TO     
CA4179                             A319                 ADSB   B-6225 CTU    CIH    CA     
TK7300                             B738                 ADSB   TC-JFR SAW    KSY    TK     
JTG795B                            B737                 ADSB   OY-JTS BLL    LPA    JO     
1L579                              C56X                 ASDI   N579QS SAV    ATL    1L     
FX34                               B77L                 ADSB   N889FD IND    CDG    FX     
IBK7EM                             B738                 ADSB   EI-FJA ALC    CPH    D8     
ZI256                              A320                 ADSB   F-HBAP ALG    ORY    ZI     
TT761                              A320                 ADSB   VH-VNF SYD    PER    TT     
CBJ5570N                            A320                 ADSB   B-6898               JD     
NH670                              B788                 ADSB   JA809A NGS    HND    NH     
X32138                             B738                 ADSB   D-ASUN FRA    FUE    X3     
TB4218                             B737                 ADSB   OO-JAR AYT    BRU    TB     
KE721                              B772                 ADSB   HL7721 ICN    KIX    KE     
HA452                              A332                 ADSB   N374HA SYD    HNL    HA     
G32012                             B738                 ADSB   PR-GXL GIG    AJU    G3     
EW9466                             A320                 ADSB   D-AEWQ DUS    LHR    EW     
N11TV                              B06                  ADSB   N11TV                       
IB3251                             A321                 ADSB   EC-ILP LIN    MAD    IB     
FX1814                                                  OCEA          HNL    LAX    FX     
C54810                             E45X                 MLAT   N14171 EWR    CMH    C5     
AZ1418                             A319                 ADSB   EI-IMC TRN    FCO    AZ     
WY413                              B738                 ADSB   A4O-BACMCT    AMM    WY     
UA224                              A320                 ADSB   N454UA ATL    EWR    UA     
EDV3618                            CRJ2                 ASDI          GNV    ATL           
QG920                              A320                 ADSB   PK-GLV BTH    SUB    QG     
KE129                              B748                 OCEA   HL7643 ICN    AKL    KE     
LYM962                             J328                 ASDI   N395DC KFNL   KCVO          
RW3593                             E170                 ASDI          CVG    EWR    RW     
FR7951                             B738                 ADSB   EI-EGA BGY    CTA    FR     
PK760                              B77W                 ADSB   AP-BMS JED    LHE    PK     
IB6123                             A333                 ADSB   EC-LZJ MAD    MIA    IB     
DL29                               B763                 OCEA   N171DZ LHR    ATL    DL     
B6144                              E190                 MLAT   N203JB CHS    DCA    B6     
CZ6419                             B738                 ADSB   B-5587 NNG    TSN    CZ     
CX542                              B77W                 ADSB   B-KQC  HKG    HND    CX     
VN405                              A321                 ADSB   VN-A362ICN    SGN    VN     
WN215                              B737                 ADSB   N279WN RDU    ATL    WN     
DL391                              B739                 ASDI   N822DN SDQ    JFK    DL     
DY7096                             B789                 ADSB   G-CJUL LAX    LGW    DY     
KU384                              A320                 ESTI   9K-AKF DEL    KWI    KU     
AI332                              B788                 ESTI   VT-ANO DEL    BKK    AI     
GAF062                             A400                 ADSB   54+11                       
ID7519                             B738                 ADSB   PK-LBQ HLP    SUB    ID     
SK1686                             A20N                 ADSB   SE-DOY MXP    CPH    SK     
N9147                              A21N                 ADSB   SE-RKB OSL    FUE    N9     
NO4430                             B763                 ADSB   I-NDMJ MXP    CUN    NO     
6H253                              A320                 ADSB   4X-ABF TLV    SXF    6H     
BA454                              A320                 ADSB   G-EUUJ LHR    AGP    BA     
AZ513                              A320                 ADSB   EI-IKF PRG    FCO    AZ     
HV5807                             B738                 ADSB   PH-HZV AMS    SKG    HV     
VY1882                             A321                 ADSB   EC-MRF BCN    TXL    VY     
PS152                              B738                 ADSB   UR-PSB HEL    KBP    PS     
LH2009                             A319                 ADSB   D-AILB DUS    MUC    LH     
NH410                              B763                 ADSB   JA609A AXT    HND    NH     
EW839                              A319                 ADSB   D-AGWM BLQ    CGN    EW     
FY2210                             AT75                 ADSB   9M-FYA SZB    PEN    FY     
ZW4241                             CRJ2                 ASDI   N414ZW SWF    PHL    ZW     
RSC469                             AT76                 ADSB   EC-MSJ ACE    TFN           
AV88                               B788                 ADSB   N791AV EZE    BOG    AV     
CX806                              B77W                 OCEA   B-KPP  HKG    ORD    CX     
B62324                             E190                 ESTI          MCO    DCA    B6     
EDV3329                            CRJ9                 MLAT   N293PQ ROC    MSP           
U28703                             A320                 ADSB   G-EZOO LGW    TFS    U2     
UA99                               B789                 OCEA   N26967 MEL    LAX    UA     
NH174                              B77W                 ADSB   JA783A NRT    IAH    NH     
CA420                              B738                 ADSB   B-5329 HKG    CKG    CA     
DJ1                                B773                 OCEA   VH-VOZ SYD    LAX    DJ     
B61481                             E190                 ASDI   N187JB BOS    RIC    B6     
ANE97HB                            CRJX                 ADSB   EC-MJO               YW     
TVF85AR                            B738                 ADSB   F-HTVG ORY    CSK    TO     
DY1503                             B738                 ADSB   LN-DYZ PRG    OSL    DY     
WW699                              A20N                 ADSB   TF-NEO TLV    KEF    WW     
FR3091                             B738                 ADSB   EI-FRC EIN    LIS    FR     
UA910                              B739                 ADSB   N69840 LAX    ORD    UA     
IB3121                             A319                 ADSB   EC-MFO VIE    MAD    IB     
U22296                             A319                 ADSB   G-EZDX KEF    LTN    U2     
CI182                              A333                 ADSB   B-18356DEL    TPE    CI     
DP805                              B738                 ADSB   VQ-BTD VKO    BGY    DP     
DL49                               B763                 ESTI   N199DN AMS    JFK    DL     
UT746                              B735                 ADSB   VQ-BPP GYD    VKO    UT     
JT158                              B739                 ADSB   PK-LHV CGK    SIN    JT     
AA949                              B738                 ADSB   N927AN BOS    MIA    AA     
BA726                              A319                 ADSB   G-EUPF GVA    LHR    BA     
AI415                              A320                 ADSB   VT-EDF DEL    PAT    AI     
JL42                               B788                 ADSB   JA839J LHR    HND    JL     
AA2160                             A319                 MLAT   N824AW DCA    BOS    AA     
BJN091                             F2TH                 ADSB   B-1999                      
EV3970                             E45X                 ASDI          BGR    EWR    EV     
FV6316                             A319                 ADSB   EI-EYL KRR    LED    FV     
FD3027                             A320                 ADSB   HS-ABO DMK    HKT    FD     
TS2846                             B738                 ADSB   OK-TVF YXU    CUN    TS     
UH250                              A320                 ADSB   UR-AJC HRK    IST    UH     
UO639                              A321                 ADSB   B-LEH  FUK    HKG    UO     
EDV3761                            CRJ9                 ADSB   N133EV BDL    CLE           
4M7671                             A320                 ESTI   LV-GUS NQN    AEP    4M     
PPU01                              B350                 ADSB   SP-TPU                      
RW6151                             E170                 MLAT   N357FC LGA    DCA    RW     
TK1287                             B738                 ADSB   TC-JVA ESB    TXL    TK     
LY338                              B739                 ADSB   4X-EHH AMS    TLV    LY     
MF8172                             B788                 ESTI   B-2761 PEK    FOC    MF     
DJ158                              B738                 ADSB   VH-YIV BNE    AKL    DJ     
SU1156                             A320                 ADSB   VQ-BPV SVO    ROV    SU     
GF543                              A320                 ADSB   A9C-AC AUH    BAH    GF     
AD9155                             AT76                 ADSB   PR-AQR UDI    SDU    AD     
AR1250                             B738                 ADSB   LV-GVC AEP    GIG    AR     
                                   A319                 ADSB   PR-AVC                      
MAI112                             B738                 ADSB   5T-CLJ BKO    ABJ           
SQ26                               A388                 ESTI   9V-SKT FRA    JFK    SQ     
DMELC                                                   ADSB                               
TK1798                             B738                 ADSB   TC-JVG GOT    IST    TK     
AT560                              B738                 ADSB   CN-RGM CMN    ALG    AT     
WN1634                             B738                 ADSB   N8309C SDF    DEN    WN     
JD5192                             A320                 ESTI   B-1642 LJG    HGH    JD     
AA4629                             E75S                 ASDI          BWI    PHL    RW     
MS682                              B738                 ADSB   SU-GCO DMM    CAI    MS     
ZW3854                             CRJ2                 ASDI          ATW    ORD    ZW     
BLOCKED                            PAY2                 ASDI   BLOCKEDSFO    ACV           
HU7330                             B738                 ADSB   B-5427 SHE    TYN    HU     
MU780                              B77W                 ESTI   B-7367 AKL    PVG    MU     
CX583                              A333                 ADSB   B-LBC  CTS    HKG    CX     
PK763                              A320                 ADSB   AP-BLB LYP    JED    PK     
FV6021                             A319                 ADSB   VP-BIT LED    VKO    FV     
FX1415                             MD11                 ADSB   N587FE MEM    PDX    FX     
BLOCKED                            F900                 ASDI   BLOCKEDKPWK   FLL           
EK54                               B77W                 ADSB   A6-ECK MUC    DXB    EK     
KE151                              B738                 ADSB   HL8246 ICN    KWE    KE     
CA4104                             A333                 ESTI   B-8383 PEK    CTU    CA     
BL606                              A320                 ADSB   VN-A560SGN    DAD    BL     
AM19                               B738                 ADSB   XA-AMK LIM    MEX    AM     
MS757                              B738                 ADSB   SU-GEJ CAI    AMS    MS     
HU7258                             B789                 ADSB   B-1539 CKG    SZX    HU     
JJ3431                             A320                 ADSB   PR-TYD FLN    BSB    JJ     
FR178                              B738                 ADSB   EI-GDP CGN    VLC    FR     
RSC206                             AT76                 ADSB   EC-MMM LPA    FUE           
KQ116                              B788                 ADSB   5Y-KZB NBO    AMS    KQ     
                                   A320                 ADSB   PK-AZK                      
LH284                              A319                 ADSB   D-AILX FRA    BLQ    LH     
SU1103                             A320                 ADSB   VP-BJW KRR    SVO    SU     
                                   E195                 ADSB   PR-AXU                      
MI607                              A320                 ADSB   9V-SLG PNH    SIN    MI     
BND11                              A139                 ADSB   G-VINC                      
IB3316                             A319                 ADSB   EC-JDL MAD    TLV    IB     
AC881                              B788                 ADSB   C-GHPY CDG    YYZ    AC     
MS611                              A332                 ADSB   SU-GCH KWI    CAI    MS     
ZW3933                             CRJ2                 MLAT   N439AW LNK    ORD    ZW     
NK363                              A321                 ASDI          ATL    IAH    NK     
JT532                              B739                 ADSB   PK-LHQ CGK    SOC    JT     
DELUP                              C172                 MLAT   D-ELUP                      
                                   B763                 ADSB   N327UP                      
SG24                               B738                 ESTI   VT-SZN DXB    IXM    SG     
                                   A359                 ADSB   9V-SMI                      
SU2342                             A320                 ADSB   VP-BTC SVO    HAJ    SU     
EW9655                             A319                 ADSB   D-AKNK KVA    DUS    EW     
JL811                              B763                 ESTI   JA607J NRT    KHH    JL     
KB130                              A319                 ADSB   A5-RGG IXB    BKK    KB     
                                   B737                 MLAT   N7734H                      
MQ3386                             CRJ7                 ASDI          CMH    ORD    MQ     
BA869                              A320                 ADSB   G-EUUW BUD    LHR    BA     
HV5592                             B737                 ADSB   PH-XRA BEG    AMS    HV     
OD1201                             AT76                 ADSB   9M-LMV SZB    JHB    OD     
EV4018                             E145                 ASDI   N16559 CAK    ORD    EV     
UA2113                             B737                 MLAT   N24706 PHL    IAH    UA     
OO7425                             CRJ2                 MLAT   N8982A YOW    DTW    OO     
DL1482                             B752                 ASDI   N680DA RDU    ATL    DL     
LBQ870                             BE58                 ASDI          ROA    KHEF          
KE81                               A388                 ESTI   HL7619 ICN    JFK    KE     
DL2082                             A321                 MLAT   N305DN SLC    ATL    DL     
                                   B738                 ADSB   9M-FFF                      
                                   A320                 ADSB   XA-VAJ                      
RW3663                             E170                 ASDI          JAX    ORD    RW     
MQ3721                             E145                 ADSB   N941LT RDU    LGA    MQ     
LY290                              B739                 ESTI   4X-EHA VCE    TLV    LY     
                                   A321                 ADSB   VN-A351                     
RW3744                             E170                 MLAT   N644RW ORF    IAH    RW     
SV821                              B77W                 ESTI   HZ-AK16CGK    RUH    SV     
RU418                              B744                 ADSB   VQ-BUU FRA    SVO    RU     
KL1846                             B738                 ADSB   PH-BXA VIE    AMS    KL     
JQ982                              A320                 ESTI   VH-VQJ OOL    PER    JQ     
NH963                              B788                 ADSB   JA840A HND    PEK    NH     
EK37                               A388                 ADSB   A6-EOS DXB    BHX    EK     
1L211                              CL60                 ADSB   N211QS KPTK   KSDL   1L     
UA1881                             B739                 ADSB   N53441 IAD    SFO    UA     
4R7502                             B763                 ADSB   VP-BRE CXR    SVO    4R     
AA1437                             B738                 ADSB   N980AN BWI    MIA    AA     
AM497                              B738                 ADSB   XA-ZAM PDX    MEX    AM     
W8583                              B763                 ADSB   C-GCIJ YHM    YVR    W8     
6E417                              A320                 ADSB   LY-ONL CCU    DEL    6E     
U28627                             A319                 ADSB   G-EZIK LGW    PMI    U2     
HU7415                             B738                 ADSB   B-1726 HGH    DLC    HU     
AI173                              B77L                 OCEA   VT-ALH DEL    SFO    AI     
                                   B738                 ADSB   LN-NHF                      
SQ323                              A359                 ADSB   9V-SMT AMS    SIN    SQ     
ASV511                             A321                 ADSB   HL8280 ICN    BKI           
AY846                              AT76                 ADSB   SE-MKI BMA    HEL    AY     
AS1128                             A320                 ADSB   N363VA PHL    LAX    AS     
DK2514                             A333                 ADSB   OY-VKG CPH    VRA    DK     
MU5711                             B738                 ADSB   B-1907 KMG    PEK    MU     
FV6622                             A319                 ADSB   EI-EYM PRG    LED    FV     
N705LH                             PC12                 ADSB   N705LH                      
FR4040                             B738                 ADSB   EI-EML MMX    KRK    FR     
FYL2156                            AT75                 ADSB   9M-FYL                      
KLM89H                             E170                 ADSB   PH-EXI AMS    DRS    KL     
SJ235                              B738                 ADSB   PK-CMK JOG    CGK    SJ     
6E727                              A320                 ADSB   VT-IGW NAG    BLR    6E     
CA1300                             B738                 ADSB   B-5342 HMI    PEK    CA     
BA219                              B744                 ADSB   G-CIVD LHR    DEN    BA     
VS652                              A346                 ESTI   G-VWIN LOS    LHR    VS     
VGO725                             B738                 ADSB   HS-NGM DMK    HIA           
HY722                              A320                 ADSB   UK32011TSE    TAS    HY     
NZ29                               B789                 ESTI   ZK-NZL IAH    AKL    NZ     
KC941                              B752                 ADSB   P4-KCU TSE    LHR    KC     
FX1440                             B763                 ADSB   N144FE MEM    LAS    FX     
KE31                               B77W                 ADSB   HL8217 ICN    DFW    KE     
QR8223                             B748                 ADSB   A7-BGB DOH    FRA    QR     
AA973                              B772                 ADSB   N751AN JFK    GIG    AA     
DL2346                             A319                 ASDI   N321NB TRI    ATL    DL     
DJ569                              A332                 ESTI   VH-XFH SYD    PER    DJ     
KAP6396                                                 ASDI                               
VN266                              B789                 ADSB   VN-A866SGN    HAN    VN     
LA439                              A321                 ADSB   CC-BEB SCL    AEP    LA     
TK7367                             B738                 ESTI   TC-SBE TZX    YEI    TK     
SU1312                             A320                 ADSB   VP-BFA SVO    MRV    SU     
AZ806                              A321                 ADSB   I-BIXS FCO    TLV    AZ     
LH811                              A319                 ADSB   D-AILM GOT    FRA    LH     
F3262                              A320                 ADSB   HZ-FAC RUH    GIZ    F3     
VGO866                             B738                 ESTI   HS-NGG TSN    KBV           
SQ228                              B77W                 ADSB   9V-SWB MEL    SIN    SQ     
FR2527                             B738                 ADSB   EI-FIM SXF    MAD    FR     
AA1383                             B738                 ASDI   N817NN PHX    ORD    AA     
WN785                              B737                 ADSB   N924WN BUF    FLL    WN     
5J119                              A333                 ADSB   RP-C3348HKG    MNL    5J     
MU2453                             B738                 ADSB   B-7876 WUH    PEK    MU     
SV723                              B77W                 ESTI   HZ-AK30ISB    RUH    SV     
EK378                              B77W                 ADSB   A6-ECZ DXB    HKT    EK     
PPLGD                              E55P                 ADSB   PP-LGD                      
UA180                              B772                 ASDI   N78013 HKG    EWR    UA     
EI3740                             AT76                 ADSB   EI-FSK ORK    SOU    RE     
HU7929                             B763                 ADSB   B-2491 PEK    HKT    HU     
3O236                              A320                 ADSB   CN-NMF MUC    AGA    3O     
MU5219                             A321                 ADSB   B-6366 SHA    ZUH    MU     
UA56                               B764                 ESTI   N77066 CDG    EWR    UA     
OZ8995                             A321                 ADSB   HL7594 GMP    CJU    OZ     
MF8026                             B738                 ADSB   B-1913 SHE    HGH    MF     
NH415                              B772                 ADSB   JA742A HND    UKB    NH     
FR2715                             B738                 ADSB   EI-DPH LGW    ALC    FR     
NJE306D                            CL35                 ADSB   CS-CHC                      
NH223                              B77W                 ADSB   JA732A HND    FRA    NH     
TP433                              A319                 ADSB   CS-TTA ORY    LIS    TP     
GA837                              B738                 ADSB   PK-GFL SIN    CGK    GA     
SV827                              B789                 ESTI   HZ-AR11KUL    MED    SV     
DY1362                             B738                 ADSB   LN-DYG OSL    DUB    DY     
6E582                              A320                 ADSB   VT-IFO PAT    DEL    6E     
AA72                               B789                 OCEA   N827AN SYD    LAX    AA     
SK526                              A20N                 ADSB   EI-SIC LHR    ARN    SK     
3S531                              B77L                 ADSB   D-AALG BLR    LEJ    3S     
9R8601                             AT46                 ADSB   HK-5129EOH    BOG    9R     
SK535                              A20N                 ADSB   SE-ROB ARN    DUB    SK     
FD3224                             A320                 ADSB   HS-ABK KBV    DMK    FD     
UA129                              B763                 ESTI   N653UA IAH    GIG    UA     
JTG793A                            B737                 ADSB   OH-JTZ LLA    LPA    JO     
EY2                                B789                 ADSB   A6-BLL FRA    AUH    EY     
AV9536                             A319                 ADSB   N726AV BOG    BAQ    AV     
FX1167                             A306                 ADSB   N652FE AFW    OAK    FX     
EK546                              B77W                 ESTI   A6-EBK DXB    MAA    EK     
OD155                              B738                 ADSB   9M-LNW KUL    PER    OD     
WN1963                             B738                 ADSB   N8509U PIT    FLL    WN     
FR4080                             B738                 ADSB   EI-FOW NCL    ALC    FR     
PC970                              A320                 ADSB   TC-DCI STR    SAW    PC     
QQE200                             GLEX                 ADSB   A7-CEF                      
AA2449                             A319                 ADSB   N12028 YYZ    MIA    AA     
KU618                              A332                 ADSB   9K-APC DOH    KWI    KU     
GTAKE                              AS55                 MLAT   G-TAKE                      
U23465                             A320                 ADSB   OE-IVJ HAM    ACE    U2     
TS323                              A310                 ADSB   C-GPAT LGW    YYZ    TS     
SQ918                              A333                 ADSB   9V-STQ SIN    MNL    SQ     
CM253                              B738                 ESTI   HP-1852CMPLAS    PTY    CM     
SU1941                             A320                 ESTI   VQ-BIV ALA    SVO    SU     
AA705                              A332                 ESTI   N293AY FRA    CLT    AA     
BA474                              A320                 ADSB   G-EUYN LHR    BCN    BA     
UA896                              B772                 ESTI   N788UA HKG    ORD    UA     
Y4432                              A320                 ESTI   XA-VOM TIJ    GDL    Y4     
LH764                              A359                 ADSB   D-AIXF MUC    BOM    LH     
AC64                               B789                 ESTI   C-FKSV ICN    YVR    AC     
EK502                              B77W                 ADSB   A6-ENL DXB    BOM    EK     
EK449                              A388                 ESTI   A6-EEL AKL    DXB    EK     
NH880                              B789                 ESTI   JA890A SYD    HND    NH     
BI685                              A320                 ADSB   V8-RBT BWN    MNL    BI     
CX719                              B772                 ADSB   B-HNA  HKG    CGK    CX     
UA1483                             B752                 MLAT   N505UA EWR    SFO    UA     
OXF34                              PA34                 ADSB   G-OXFD                      
DL2352                             MD88                 MLAT   N954DL ALB    ATL    DL     
DL1263                             MD88                 MLAT   N994DL PVD    ATL    DL     
FX1781                             A306                 ADSB   N675FE IND    ONT    FX     
CZ479                              B77L                 ADSB   B-2010 AMS    CKG    CZ     
EK102                              B77L                 ADSB   A6-EWI MXP    DXB    EK     
ROJ08                              B737                 ADSB   A6-RJV                      
BLOCKED                            C750                 ASDI   BLOCKEDBGR    LBG           
BRO32P                             BE20                 MLAT   G-FSEU                      
DY7098                             B789                 ADSB   LN-LNJ LAX    CDG    DY     
EIN17T                             A320                 ADSB   EI-DVI DUB    LHR    EI     
JT259                              B739                 ADSB   PK-LFY PDG    SUB    JT     
BLOCKED                            GLEX                 ADSB   BLOCKED                     
FX7                                B77L                 ADSB   N864FD DEL    CDG    FX     
FX1545                             B763                 ADSB   N113FE MEM    SFO    FX     
U27688                             A319                 ADSB   G-EZEZ BSL    LIS    U2     
OK886                              A319                 ADSB   OK-NEM PRG    LED    OK     
LH2517                             A319                 ADSB   D-AIBF DUB    MUC    LH     
HY256                              B763                 ADSB   UK67005MXP    TAS    HY     
LH8297                             MD11                 ESTI   D-ALCN JNB    NBO    LH     
BFD25K                             F2TH                 ADSB   D-BOOK                      
OD205                              B739                 ADSB   9M-LNH KUL    DEL    OD     
EK9962                             B744                 ADSB   LX-GCL ORD    BRU    EK     
CZ6799                             A321                 ESTI   B-8966 PVG    KMG    CZ     
FR6267                             B738                 ADSB   EI-DLN BCN    EDI    FR     
AA82                               B789                 OCEA   N831AA AKL    LAX    AA     
AF218                              B772                 ADSB   F-GSPV CDG    BOM    AF     
SK899                              B737                 ADSB   LN-RRN ARN    BGO    SK     
BA951                              A319                 ADSB   G-EUOC MUC    LHR    BA     
                                   A320                 ADSB   PR-MAG                      
FX29                               MD11                 ASDI   N614FE IND    ANC    FX     
OZ8993                             B763                 ADSB   HL7506 GMP    CJU    OZ     
CX731                              A333                 ADSB   B-LBB  HKG    DXB    CX     
6E237                              A20N                 ADSB   VT-ITL MAA    AMD    6E     
NH1709                             B737                 ADSB   JA03AN KIX    FUK    NH     
AZ107                              A320                 ADSB   EI-DTH AMS    FCO    AZ     
BR6                                B77W                 OCEA   B-16726TPE    LAX    BR     
AY78                               A333                 ADSB   OH-LTO KIX    HEL    AY     
FR8508                             B738                 ADSB   EI-DLX KRK    TRF    FR     
WN6069                             B737                 MLAT   N904WN JAX    MDW    WN     
DL2197                             MD90                 ASDI   N925DN CMH    ATL    DL     
DL91                               B764                 ADSB   N830MH DUS    ATL    DL     
                                   A20N                 ADSB   N307FR                      
CX918                              B77W                 ADSB   B-KPF  MNL    HKG    CX     
PC1918                             B738                 ADSB   TC-CPI SAW    ECN    PC     
AA700                              A319                 ADSB   N723UW RDU    PHL    AA     
B2882                              E195                 ADSB   EW-399POMXP    MSQ    B2     
DL2623                             B712                 MLAT   N960AT EWR    DTW    DL     
NH8441                             B763                 ESTI   JA8664 NRT    TPE    NH     
PHEMK                              C172                 MLAT   PH-EMK                      
CA430                              A333                 ESTI   B-8386 SYD    CTU    CA     
AD6904                             AT76                 ADSB   PR-AQZ VCP    UDI    AD     
CA935                              A332                 ADSB   B-5933 PVG    FRA    CA     
QG46                               A320                 ADSB   PK-GLU               QG     
AI127                              B77W                 ASDI   VT-ALO DEL    ORD    AI     
CI105                              A359                 ESTI   B-18912NRT    TPE    CI     
SA75                               A319                 ADSB   ZS-SFL WDH    JNB    SA     
AZ575                              E170                 ADSB   EI-RDK GVA    FCO    AZ     
BLOCKED                            LJ35                 ASDI   BLOCKEDANC    BRW           
AA4504                             E75S                 ASDI   N118HQ IND    PHL    RW     
5J973                              A333                 ADSB   RP-C3342MNL    DVO    5J     
ZW3852                             CRJ2                 ASDI          DAY    ORD    ZW     
CV749                              B748                 ADSB   LX-VCJ XMN    LUX    CV     
VY3261                             A320                 ESTI   EC-LVP TFN    BIO    VY     
WN343                              B737                 MLAT   N402WN CMH    DEN    WN     
Q73139                             B734                 ASDI          MIA    HAV    Q7     
ZSEZY                              F2TH                 ADSB   ZS-EZY                      
CZ8346                             B738                 ADSB   B-1918 TPE    YIW    CZ     
VY1305                             A320                 ADSB   EC-MES ALC    BCN    VY     
BA763                              A321                 ESTI   G-EUXL OSL    LHR    BA     
AA2345                             A321                 ADSB   N906AA TPA    DFW    AA     
UA1861                             B738                 ADSB   N76515 PBI    EWR    UA     
D8367                              B738                 ADSB   EI-FVR LGW    HEL    D8     
EDV3311                            CRJ2                 ADSB   N8688C OAJ    ATL           
CI528                              B744                 ADSB   B-18215SZX    TPE    CI     
CV775                              B744                 ESTI   LX-WCV IAH    PIK    CV     
TU791                              A320                 ADSB   TS-IMM LGW    TUN    TU     
WN1279                             B737                 MLAT   N700GS MHT    MDW    WN     
CWL07P                             G12T                 ADSB   ZM311                       
HBAL082                            BALL                 ADSB   N/A                         
WN6261                             B737                 MLAT   N556WN PHL    MCO    WN     
FX1837                             B763                 ADSB   N107FE PHX    OAK    FX     
YC9741                             A321                 ADSB   VQ-BSQ               YC     
TP1038                             A319                 ADSB   CS-TTV LIS    BCN    TP     
UA241                              B739                 ADSB   N69810 EWR    ATL    UA     
H9891                              A320                 ADSB   9N-ALM KUL    KTM    H9     
TK1784                             A321                 ADSB   TC-JSU CPH    IST    TK     
QR739                              B77L                 ADSB   A7-BBI DOH    LAX    QR     
LH1376                             CRJ9                 MLAT   D-ACNG FRA    GDN    LH     
BV9046                             B738                 ADSB   EI-FSJ               BV     
                                   E45X                 MLAT   N11119                      
6E7103                             AT76                 ADSB   VT-IYC HYD    NAG    6E     
N1136P                             BE36                 ASDI   N1136P                      
O66215                             A320                 ADSB   PR-AVU BSB    GIG    O6     
HU7715                             B738                 ESTI   B-6063 SZX    TNA    HU     
B62024                             A321                 ADSB   N976JT LAX    JFK    B6     
UA98                               B789                 OCEA   N45956 LAX    MEL    UA     
MF8348                             B738                 ADSB   B-6488 CAN    FOC    MF     
                                   A139                 ADSB   G-SNSE                      
LX456                              BCS1                 ADSB   HB-JBA ZRH    LCY    LX     
AH1045                             B738                 ADSB   7T-VKK TLS    ALG    AH     
TK1762                             A321                 ADSB   TC-JTR HEL    IST    TK     
                                   A319                 ADSB   N9004F                      
LH1653                             A321                 ADSB   D-AIDX OTP    MUC    LH     
9W373                              B738                 ESTI   VT-JTH DEL    BOM    9W     
LH1140                             A320                 ADSB   D-AIUN FRA    SVQ    LH     
AZ1649                             A319                 ADSB   EI-IMN LIN    BRI    AZ     
WN1738                             B737                 MLAT   N212WN ATL    BWI    WN     
DY7013                             B789                 ADSB   G-CKNA LGW    JFK    DY     
AZ211                              E190                 ADSB   EI-RNC LCY    FCO    AZ     
CFE3MR                             E190                 ADSB   G-LCYR VIE    MAN    CJ     
ID6175                             A320                 ADSB   PK-LAY AMQ    SUB    ID     
KE214                              B748                 ADSB   HL7639 SFO    ICN    KE     
NO6946                             B763                 ADSB   I-NDDL               NO     
EY96                               A321                 ADSB   A6-AEE IST    AUH    EY     
CX870                              B77W                 OCEA   B-KQA  HKG    SFO    CX     
MRA603                             C208                 ASDI          LAN    MBS           
PC1071                             B738                 ADSB   TC-CPE SAW    CPH    PC     
QQE250                             GL5T                 ADSB   A7-CEV                      
DL83                               B764                 ESTI   N838MH CDG    ATL    DL     
QR136                              A320                 ESTI   A7-AHW PSA    DOH    QR     
LH8401                             B77L                 ADSB   D-ALFC PVG    FRA    LH     
PS424                              B738                 ADSB   UR-PSV TXL    KBP    PS     
AY156                              A359                 ESTI   OH-LWE KBV    HEL    AY     
U22366                             A20N                 ADSB   G-UZHA LIS    LTN    U2     
NV2625                             F100                 ADSB   EP-OPI               NV     
AA1567                             B738                 ADSB   N933NN DCA    MIA    AA     
DL1937                             B739                 ADSB   N887DN BWI    DTW    DL     
KL929                              E75L                 ADSB   PH-EXS AMS    INV    KL     
EY455                              A388                 ADSB   A6-API SYD    AUH    EY     
EI552                              A320                 ADSB   EI-DEJ DUB    LYS    EI     
UX2057                             A332                 ADSB   EC-LQO BCN    MAD    UX     
N200UP                             EC35                 ADSB   N200UP                      
AA102                              B772                 ADSB   N796AN HNL    DFW    AA     
                                   BE9L                 ADSB   PR-JFJ                      
MH6118                             A332                 ADSB   9M-MUA KUL    HKG    MH     
LKF88                              C680                 ASDI          GRB    MQT           
WN1583                             B737                 ASDI          MDW    BWI    WN     
BR67                               B77W                 ESTI   B-16707BKK    LHR    BR     
SC4840                             B738                 ADSB   B-5728 SJW    HRB    SC     
OZ283                              B744                 ADSB   HL7616 SFO    ICN    OZ     
JT180                              B738                 ADSB   PK-LPJ SOC    BPN    JT     
US5197                             CRJ7                 ASDI          DAY    DCA    US     
TR289                              A320                 ADSB   9V-TRN DPS    SIN    TR     
FX142                              A306                 ADSB   N719FD MEM    YVR    FX     
DL894                              MD88                 MLAT   N926DL FNT    ATL    DL     
NK653                              A319                 ADSB   N514NK PIT    LAX    NK     
SV929                              B77L                 ADSB   HZ-AK72RUH    FRA    SV     
CK221                              B77L                 OCEA   B-2077 PVG    LAX    CK     
SLG2                               BE20                 ASDI          CJD5   YXE           
OK688                              B739                 ADSB   OK-TSM PRG    BCN    OK     
LH856                              A320                 ADSB   D-AIUO FRA    KEF    LH     
AK535                              A320                 ADSB   9M-AJI PNH    KUL    AK     
UA1855                             B738                 ESTI          MCO    EWR    UA     
FR9662                             B738                 ADSB   EI-DAH CIA    KRK    FR     
BE104                              DA42                 MLAT   G-FFMV AMS    BHX    BE     
JQ216                              A320                 ADSB   VH-VFV AKL    MEL    JQ     
AK137                              A320                 ADSB   9M-AHX HKG    KUL    AK     
QG172                              A320                 ADSB   PK-GQP               QG     
BR25                               B77W                 ASDI   B-16737SEA    TPE    BR     
CCD1542                            B738                 ADSB   B-5196 NGB    PEK           
OZ202                              A388                 OCEA   HL7625 ICN    LAX    OZ     
                                   B737                 ADSB   PR-GON                      
O66189                             A320                 ADSB   PR-ONL BSB    GRU    O6     
EDV3841                            CRJ9                 ASDI   N914XJ ROC    LGA           
PS111                              B738                 ADSB   UR-PSR KBP    LGW    PS     
VN598                              A321                 ESTI   VN-A397SGN    HKG    VN     
JL2019                             B738                 ADSB   JA335J ITM    CTS    JL     
DY4902                             B738                 ADSB   LN-NIE KRK    ARN    DY     
ND7458                             A321                 ESTI   HB-JOI ZRH    RMF    ND     
BA156                              B744                 ADSB   G-CIVE KWI    LHR    BA     
                                   B788                 ADSB   VH-VKK                      
GBOOE                              GA7                  ADSB   G-BOOE                      
6E478                              A20N                 ESTI   VT-ITY ATQ    BLR    6E     
                                   A320                 ADSB   RP-C4105                     
EDV3474                            CRJ2                 MLAT   N8886A BWI    JFK           
AY1252                             A319                 ADSB   OH-LVD BUD    HEL    AY     
CV798                              B748                 ESTI   LX-VCN GYD    PVG    CV     
KE23                               B77W                 OCEA   HL8009 ICN    SFO    KE     
LA146                              A321                 ADSB   CC-BEA SCL    CJC    LA     
TP756                              A319                 ADSB   CS-TTL LIS    CPH    TP     
TP574                              A319                 ADSB   CS-TTF               TP     
CM724                              B738                 ADSB   HP-1833CMPGRU    PTY    CM     
DL1514                             MD90                 ASDI          MIA    MSP    DL     
CI1                                                     OCEA          HNL    TPE    CI     
WN1697                             B737                 ASDI          FLL    TPA    WN     
AC43                               B789                 ASDI   C-FVLQ DEL    YYZ    AC     
CA117                              B738                 ADSB   B-5848 PEK    HKG    CA     
WN715                              B737                 ASDI          OKC    DAL    WN     
CZ3012                             A320                 ESTI   B-6775 TPE    SHE    CZ     
6E397                              A320                 ADSB   VT-IAQ DEL    MAA    6E     
LX1326                             A320                 ADSB   HB-JLR ZRH    DME    LX     
SU2169                             B738                 ADSB   VP-BRH BRU    SVO    SU     
PSC999                             JS32                 ASDI          YHU    YBG           
                                   A320                 ADSB   XU-996                      
GR605                              E195                 ADSB   G-NSEY LGW    GCI    GR     
UA963                              B763                 OCEA   N667UA TXL    EWR    UA     
SU1847                             A320                 ADSB   VP-BNL KIV    SVO    SU     
PTOSO                              BE9L                 ADSB   PT-OSO                      
OZ108                              A321                 ADSB   HL8278 ICN    NRT    OZ     
U28295                             A320                 ADSB   G-EZUS LGW    INN    U2     
8C3752                             B762                 MLAT   N739AX SMF    ABE    8C     
GF786                              A332                 ADSB   A9C-KF BAH    PEW    GF     
                                   E170                 ADSB   JA212J                      
LJ601                              B772                 ADSB   HL7734 ICN    HNL    LJ     
UA534                                                   OCEA          HNL    LAX    UA     
FR7090                             B738                 ADSB   EI-DWD FCO    TLV    FR     
TK32                               A332                 ADSB   TC-JNE ATL    IST    TK     
OS64                               B763                 ADSB   OE-LAW PEK    VIE    OS     
FR3205                             B738                 ADSB   EI-EFO CIA    MAN    FR     
UA870                              B789                 ASDI   N26960 SYD    SFO    UA     
KL1083                             B738                 ADSB   PH-BXM AMS    MAN    KL     
U26052                             A320                 ADSB   G-EZPI AGP    BRS    U2     
3U8677                             A319                 ADSB   B-6447 XIY    XMN    3U     
FV6564                             A319                 ADSB   VQ-BAS AER    LED    FV     
SU507                              A321                 ADSB   VP-BFX TLV    SVO    SU     
CA939                              B789                 ADSB   B-7832 PEK    FCO    CA     
DJ7                                B77W                 OCEA   VH-VPD BNE    LAX    DJ     
HX232                              A333                 ADSB   B-LNR  HKG    PVG    HX     
JJ3394                             A320                 ADSB   PR-MHG GRU    POA    JJ     
VY6534                             A320                 ADSB   EC-LQM BCN    CTA    VY     
EY6                                B77W                 ADSB   A6-ETL MUC    AUH    EY     
B6515                              E190                 ADSB   N375JB BOS    BUF    B6     
RW3550                             E170                 MLAT   N648RW DCA    ORD    RW     
5X2968                             B763                 OCEA   N311UP ONT    HNL    5X     
WN497                              B737                 ASDI          MCI    MCO    WN     
FR8732                             B738                 ADSB   EI-EBD MXP    SVQ    FR     
MF8361                             B738                 ADSB   B-1301 XMN    HAK    MF     
                                   E145                 MLAT   N651AE                      
LJ63                               B738                 ESTI   HL7556 ICN    BKI    LJ     
MF8317                             B738                 ADSB   B-5632 SHA    SZX    MF     
MI788                              A320                 ESTI   9V-SLQ LPQ    SIN    MI     
D8123                              B738                 ADSB   EI-FVN RVN    HEL    D8     
SG626                              B738                 ESTI   VT-SLF CCU    MAA    SG     
AIP5003                            BE99                 ASDI          BTM    BIL           
CA1412                             B738                 ESTI   B-1958 CKG    PEK    CA     
6E638                              A20N                 ADSB   VT-TNB IXC    BLR    6E     
9C8868                             A320                 ADSB   B-6862 CKG    PVG    9C     
U24604                             A319                 ADSB   G-EZAM KVA    SXF    U2     
G34922                             B738                 ADSB   PR-GXI GIG    MCZ    G3     
ANE56SJ                            CRJX                 ADSB   EC-MRI MAD    MAH    YW     
THY4VQ                             A321                 ADSB   TC-JSS MAN    IST    TK     
UA157                                                   OCEA          GUM    ROR    UA     
NJE823C                            E55P                 ADSB   CS-PHE                      
GA622                              B738                 ADSB   PK-GMP CGK    PLW    GA     
SV227                              B789                 ADSB   HZ-ARB JED    MAD    SV     
SU1003                             A320                 ADSB   VQ-BRW KGD    SVO    SU     
MQ3302                             E170                 ADSB   N246NN ICT    DFW    MQ     
UA961                              B764                 ADSB   N69059 FRA    EWR    UA     
NJE831U                            E55P                 ADSB   CS-PHD                      
AZ608                              A332                 ADSB   EI-EJG FCO    JFK    AZ     
VY3276                             A320                 ADSB   EC-LRE AGP    TFN    VY     
B61679                             A320                 ASDI   N554JB JFK    MBJ    B6     
WN409                              B737                 MLAT   N257WN BUF    BWI    WN     
6E326                              A320                 ESTI   VT-IDU CCU    BOM    6E     
NK456                              A319                 ADSB   N516NK LAS    ORD    NK     
                                   A139                 ADSB   G-CJNI                      
I23715                             A320                 ADSB   EC-LKH LGW    MAD    I2     
TR179                              A320                 ADSB   9V-TRH JJN    SIN    TR     
GS7858                             A20N                 ADSB   B-8382 XIY    TSN    GS     
FR2332                             B738                 ADSB   EI-FTV LBA    KRK    FR     
KC896                              A320                 ADSB   P4-KBC DXB    ALA    KC     
FX1413                             MD11                 ASDI   N595FE MEM    HNL    FX     
G74553                             CRJ7                 ASDI          LEX    ORD    G7     
THY4HM                             B738                 ADSB   TC-JHP IST    EDI    TK     
MU2450                             A320                 ADSB   B-2356 SZX    XIY    MU     
TK7098                             B738                 ADSB   TC-SCL ESB    IGD    TK     
IB8615                             CRJX                 ADSB   EC-LJR FRA    MAD    YW     
SSM2                               GRND                 MLAT          SYD    ADL           
MS753                              B738                 ADSB   SU-GEF CAI    MAD    MS     
BA2155                             B772                 ADSB   G-VIIG LGW    BGI    BA     
JJ3496                             A320                 ADSB   PR-MYA CNF    BSB    JJ     
GJ8859                             A320                 ADSB   B-8897 HGH    WDS    GJ     
CM383                              B738                 ESTI   HP-1843CMPSFO    PTY    CM     
N3TA                                                    ASDI   N3TA                        
E508                               G12T                 ADSB   E-508                       
EDV3365                            CRJ9                 ASDI          LEX    DTW           
WS648                              B737                 ADSB   C-GSWJ YYC    YYZ    WS     
LY7                                B772                 ADSB   4X-ECD TLV    JFK    LY     
CZ6906                             B738                 ADSB   B-7967 PEK    URC    CZ     
EY473                              B789                 ADSB   A6-BLC SIN    AUH    EY     
OEGTI                              C25C                 ADSB   OE-GTI                      
SK732                              B736                 ADSB   LN-RRP ARN    LED    SK     
AF7739                             A319                 ADSB   F-GRHF BES    CDG    AF     
G74485                             CRJ7                 ASDI          MLI    ORD    G7     
SQ966                              B773                 ADSB   9V-SYJ SIN    CGK    SQ     
HBAL114                            BALL                 ADSB   N/A                         
BDK04                              ZZZZ                 ADSB   4X-CVE                      
JT26                               B738                 ADSB   PK-LOP CGK    DPS    JT     
FX487                              B763                 MLAT   N153FE MEM    IAD    FX     
CV104                              B748                 OCEA   LX-VCM LUX    ATL    CV     
2L751                              DC10                 ESTI   CP-2791MIA    VVI    2L     
N209LB                             BE58                 ADSB   N209LB                      
SV1143                             A320                 ADSB   HZ-AS34DMM    RUH    SV     
B6860                              E190                 ASDI   N358JB PHL    BOS    B6     
VHPFV                              G150                 ADSB   VH-PFV                      
HV5086                             B737                 ADSB   PH-XRZ SVQ    EIN    HV     
JL413                              B789                 ESTI   JA866J NRT    HEL    JL     
N345FM                             LJ45                 ADSB   N345FM BPT    KODO          
EY487                              B789                 ESTI   A6-BLS PER    AUH    EY     
EK809                              B77W                 ADSB   A6-ECB DXB    MED    EK     
EI3253                             AT76                 ADSB   EI-FAW EDI    DUB    RE     
                                   E120                 MLAT   N229SW                      
NH807                              B789                 ESTI   JA891A NRT    BKK    NH     
                                   DR40                 ADSB   HB-KFD                      
PRSHL                              S76                  ADSB   PR-SHL                      
AY86                               A359                 ADSB   OH-LWG PEK    HEL    AY     
NH179                              B788                 ADSB   JA827A MEX    NRT    NH     
FIN56W                             AT75                 MLAT   OH-ATE HEL    TMP    AY     
TK1752                             B738                 ADSB   TC-JHO OSL    IST    TK     
                                   E170                 ADSB   JA221J                      
KE17                               B748                 OCEA   HL7642 ICN    LAX    KE     
LS705                              B738                 ADSB   G-JZHT EDI    ACE    LS     
OXF37                              PA34                 ADSB   G-OXFG                      
TK82                               A333                 ADSB   TC-JNS BOS    IST    TK     
SU251                              B77W                 ESTI   VQ-BUB ICN    SVO    SU     
EI353                              A320                 ADSB   EI-DVK MUC    DUB    EI     
W64552                             A320                 ADSB   HA-LYI LTN    BOJ    W6     
PRW639                             B738                 ADSB   OY-PSA GOT    SPC           
UA31                               B763                 OCEA   N674UA MUC    EWR    UA     
WS418                              B737                 ADSB   C-GMWJ YEG    YYZ    WS     
V72212                             A319                 ADSB   EC-MTD NTE    VCE    V7     
DL197                              A333                 ADSB   N803NW MCO    GRU    DL     
RU467                              B748                 ESTI   VQ-BLR SVO    PVG    RU     
AM57                               B788                 OCEA   N966AM NRT    MEX    AM     
FX51                               MD11                 ASDI   N604FE MEM    SJU    FX     
SU1402                             B738                 ADSB   VQ-BWD SVO    SVX    SU     
JQ61                               B788                 ADSB   VH-VKG SYD    SGN    JQ     
3U8393                             A321                 ADSB   B-1891 CKG    CEB    3U     
EY12                               A388                 ADSB   A6-APF LHR    AUH    EY     
AY142                              A359                 ADSB   OH-LWL BKK    HEL    AY     
QF107                              A332                 ADSB   VH-EBG SYD    PEK    QF     
IX374                              B738                 ADSB   VT-GHF DOH    CCJ    IX     
MT1536                             A321                 ADSB   G-TCDH EMA    ACE    MT     
EV5403                             CRJ7                 MLAT   N761ND RIC    DTW    EV     
BR180                              A321                 ADSB   B-16216TPE    KIX    BR     
TU712                              A320                 ESTI   TS-IMW CMN    TUN    TU     
9W848                              B738                 ADSB   VT-JBD DEL    IXE    9W     
LJ51                               B738                 ADSB   HL8224 ICN    VTE    LJ     
1L340                              E55P                 ADSB   N340QS DAB    KISO   1L     
I5768                              A320                 ADSB   VT-RED IXB    DEL    I5     
U25804                             A320                 ADSB   YL-LCT PMI    TXL    U2     
SV120                              B77W                 ADSB   HZ-AK41LHR    RUH    SV     
OZ521                              B772                 ESTI   HL7739 ICN    LHR    OZ     
XQ958                              B738                 ADSB   TC-SOF ADB    DUS    XQ     
IB6402                             A346                 ADSB   EC-JCZ MEX    MAD    IB     
HY272                              B763                 ESTI   UK67008IST    TAS    HY     
LH2463                             A321                 ADSB   D-AIRB HEL    MUC    LH     
W61515                             A321                 ADSB   HA-LXU WAW    TRF    W6     
DL1768                             B752                 OCEA   N342NW OGG    SEA    DL     
DJ44                               B738                 ESTI   VH-YIU DPS    BNE    DJ     
RU485                              B744                 ADSB   VP-BIK SVO    CTU    RU     
VY8171                             A321                 ADSB   EC-MHS ORY    AGP    VY     
D7522                              A333                 ESTI   9M-XXF KUL    HND    D7     
CHP4                                                    ASDI                               
DL900                              A321                 ADSB   N328DN BOS    ATL    DL     
LG3591                             DH8D                 ADSB   LX-LQJ LUX    BCN    LG     
TP89                               A332                 ESTI   CS-TOH LIS    GRU    TP     
UA916                              B77W                 OCEA   N2333U AKL    SFO    UA     
6E679                              A320                 ADSB   LY-ONJ DEL    HYD    6E     
WN2088                             B737                 MLAT   N7863A BNA    HOU    WN     
UA4200                             E145                 ASDI          LRD    IAH    EV     
                                                        ADSB                               
UT808                              B762                 ADSB   VP-BAI BHK    VKO    UT     
NU65                               B738                 ADSB   JA04RK FUK    OKA    NU     
B6132                              A320                 ASDI   N505JB LAX    MCO    B6     
EK347                              A388                 ADSB   A6-EUX KUL    DXB    EK     
FR7062                             B738                 ADSB   EI-ENM DUB    ALC    FR     
OD1236                             AT76                 ADSB   9M-LMT SZB    KBR    OD     
QF7550                             B744                 ADSB   N492MC ORD    HNL    QF     
FD655                              A320                 ADSB   HS-ABP SGN    DMK    FD     
B6746                                                   OCEA          PSE    JFK    B6     
G31760                             B737                 ADSB   PR-VBH BSB    PMW    G3     
DL2768                                                  OCEA          HNL    SLC    DL     
HU7523                             B788                 ADSB   B-2723 PEK    KHN    HU     
OK724                              A319                 ADSB   OK-OER PRG    FCO    OK     
LX189                              A343                 ADSB   HB-JME PVG    ZRH    LX     
D0492                              B763                 ESTI   G-DHLF LEJ    CVG    D0     
JL407                              B788                 ADSB   JA867J NRT    FRA    JL     
JQ447                              A321                 ADSB   VH-VWU OOL    MEL    JQ     
EY258                              B77W                 ESTI   A6-ETA AUH    DAC    EY     
KL1556                             E75L                 ADSB   PH-EXO TRN    AMS    KL     
BR661                              B744                 ADSB   B-16482ANC    TPE    BR     
3U8826                             A320                 ADSB   B-1819 WNZ    SYX    3U     
SU110                              A332                 ESTI   VQ-BBE SVO    MIA    SU     
U23004                             A320                 ADSB   G-EZOA AMS    STN    U2     
                                                        ADSB                               
SL813                              B739                 ADSB   HS-LTO KBV    DMK    SL     
AA287                              B738                 ADSB   N965NN SJU    MIA    AA     
OR443                              B738                 ESTI   PH-TFD AMS    BVC    OR     
TA521                              A321                 ESTI   N570TA LAX    SAL    TA     
QZ252                              A320                 ADSB   PK-AZJ CGK    DMK    QZ     
KY8332                             B738                 ESTI   B-7873 XMN    TYN    KY     
SU2356                             B738                 ADSB   VP-BMM SVO    VIE    SU     
N497EC                             GLEX                 ADSB   N497EC TEB    BTR           
TJ515                              PC12                 ASDI   N515CC HPN    BOS    TJ     
SN3668                             A319                 ADSB   OO-SSC TLS    BRU    SN     
D85405                             B738                 ADSB   EI-FJD CGN    ALC    D8     
AF275                              B77W                 ADSB   F-GZNJ NRT    CDG    AF     
BV2235                             B738                 ADSB   EI-GAW TIA    VRN    BV     
N888XS                             GLF5                 ADSB   N888XS                      
TK786                              A320                 ADSB   TC-JPR IST    TLV    TK     
FD436                              BE20                 ADSB   VH-FDT                      
LH816                              A320                 ADSB   D-AIZG FRA    GOT    LH     
EDV3353                            CRJ2                 ASDI          ABY    ATL           
AA2321                             B738                 ADSB   N824NN EWR    DFW    AA     
ME232                              A320                 ADSB   T7-MRE FCO    BEY    ME     
AA2547                             B738                 ADSB   N991NN AUS    DFW    AA     
D82851                             B738                 ADSB   EI-FVV ARN    LGW    D8     
UA101                              B789                 OCEA   N38950 IAH    SYD    UA     
AA2372                             MD82                 ASDI          IND    DFW    AA     
AF7523                             A321                 ADSB   F-GTAX TLS    CDG    AF     
AY1532                             E190                 ADSB   OH-LKP GVA    HEL    AY     
G76213                             CRJ7                 ADSB   N669CA ELM    DTW    G7     
KFS729                             B722                 ASDI          YIP    SLW           
5Y3560                             B763                 ADSB   N1093A ONT    BWI    5Y     
SV747                              A333                 ESTI   HZ-AQH COK    JED    SV     
RV1641                             A321                 ADSB   C-FJOK MIA    YYZ    RV     
FX1433                             A306                 ADSB   N678FE MEM    ORF    FX     
CGPZT                              P28A                 ASDI   CGPZT  YFC    YHU           
AA2363                             B738                 ADSB   N822NN DFW    MIA    AA     
AF520                              B789                 ESTI   F-HRBB CDG    BKO    AF     
CI3                                B77W                 OCEA   B-18006SFO    TPE    CI     
FZ305                              B738                 ESTI   A6-FDP DXB    KBL    FZ     
BA982                              A321                 ADSB   G-EUXE LHR    TXL    BA     
CZ348                              A332                 ADSB   B-6526 CDG    CAN    CZ     
NK522                              A321                 ASDI   N664NK FLL    EWR    NK     
KAP51                              C402                 ADSB   N6813J                      
WW721                              A321                 ADSB   TF-KID SXF    KEF    WW     
B6990                              A321                 ESTI          MCO    JFK    B6     
AD9217                             A20N                 ADSB   PR-YRI VCP    REC    AD     
DIZZZ                              C525                 ADSB   D-IZZZ                      
SQ327                              A359                 ADSB   9V-SMJ MUC    SIN    SQ     
DL109                              B764                 ESTI   N840MH MAD    ATL    DL     
ETD87W                             B77L                 ESTI   A6-LRE DFW    AUH    EY     
FM865                              B738                 ESTI   B-1332 PVG    KBV    FM     
RJ611                              A321                 ESTI   JY-AYV DXB    AMM    RJ     
TP797                              A320                 ADSB   CS-TNP HEL    LIS    TP     
D8343                              B738                 ADSB   EI-FVJ WAW    OSL    D8     
EY42                               A332                 ADSB   A6-EYJ DUB    AUH    EY     
EK212                              B77W                 ADSB   A6-EQF IAH    DXB    EK     
N655NG                             PC12                 ADSB   N655NG ATW    KOJC          
GA896                              A333                 ESTI   PK-GPR DPS    CAN    GA     
LY315                              B789                 ADSB   4X-EDB TLV    LHR    LY     
CZ643                              A333                 ADSB   B-5951 CAN    MEL    CZ     
DISCV                              C25A                 ADSB   D-ISCV                      
RW4754                             E170                 MLAT   N137HQ DCA    LGA    RW     
FR1727                             B738                 ADSB   EI-EME RIX    MLA    FR     
BA467                              A320                 ADSB   G-EUUF BIO    LHR    BA     
EK9913                             B77L                 ESTI   A6-EFK DWC    DKR    EK     
9I838                              AT76                 ADSB   VT-AIX               9I     
BLOCKED                            B738                 ADSB   BLOCKED                     
RW4594                             E170                 ADSB   N433YX GSO    MIA    RW     
JL773                              B788                 ADSB   JA840J NRT    MEL    JL     
5Y505                              B762                 MLAT   N658GT CVG    PHX    5Y     
KE137                              A332                 ADSB   HL8228 ICN    NAN    KE     
EDV3399                            CRJ9                 ASDI   N903XJ PWM    JFK           
WN1965                             B737                 ADSB   N7879A TPA    MSY    WN     
EK404                              A388                 ADSB   A6-EEA DXB    SIN    EK     
8L9565                             B738                 ADSB   B-1588 CGO    KWE    8L     
UA635                              B738                 MLAT   N36247 BWI    ORD    UA     
BLOCKED                            E35L                 ADSB   BLOCKEDLAX    TEB           
GF18                               A320                 ADSB   A9C-AO CDG    BAH    GF     
EDV3460                            CRJ9                 MLAT   N232PQ EWR    MSP           
WN398                              B738                 ADSB   N8683D BOS    MDW    WN     
LA532                              B789                 ADSB   CC-BGE SCL    JFK    LA     
EW8027                             DH8D                 ADSB   D-ABQR NUE    DUS    EW     
9C8673                             A320                 ESTI   B-1672 SJW    HRB    9C     
US5311                             CRJ2                 ASDI   N223JS HVN    PHL    US     
FR2047                             B738                 ADSB   EI-EKX ACE    LBA    FR     
QR417                              A332                 ADSB   A7-ACC BEY    DOH    QR     
FX1865                             A306                 ADSB   N726FD OAK    PHX    FX     
8Q31                               A321                 ADSB   TC-ONJ DIY    IST    8Q     
GF155                              A332                 ESTI   A9C-KE MNL    BAH    GF     
LI392                              AT76                 ADSB   V2-LIM OGL    BGI    LI     
FX31                               B77L                 ADSB   N844FD OAK    NRT    FX     
AC829                              A333                 ADSB   C-GHKW LYS    YUL    AC     
VJ5321                             A321                 ADSB   VN-A637TSN    CXR    VJ     
LO751                              E195                 ADSB   SP-LND WAW    KBP    LO     
5J481                              A320                 ADSB   RP-C3270MNL    BCD    5J     
DL2182                             B712                 MLAT   N954AT LEX    ATL    DL     
BR68                               B77W                 ESTI   B-16708BKK    TPE    BR     
OZ541                              A388                 ADSB   HL7634 ICN    FRA    OZ     
WS518                              B738                 ASDI   C-FONK YWG    YYZ    WS     
MQ3518                             E135                 ASDI   N808AE CHO    LGA    MQ     
BLOCKED                            CL60                 ADSB   BLOCKEDBDL    TEB           
CCC841                             B744                 ADSB   OM-ACJ                      
BA2159                             B772                 ESTI   G-VIIP LGW    UVF    BA     
QQ2713                             F100                 ADSB   VH-FKC               QQ     
S71211                             A319                 ADSB   VP-BHI DME    STW    S7     
BA2157                             B772                 ESTI   G-VIIY LGW    ANU    BA     
UA2030                             B738                 ADSB   N14235 ROC    EWR    UA     
HO1313                             A320                 ADSB   B-8536 PVG    HKT    HO     
FR5504                             B738                 ADSB   EI-EKK HAM    BGY    FR     
WN864                              B737                 ASDI          MSP    BWI    WN     
                                   AT75                 ADSB   VQ-BLF                      
AI144                              B77W                 ADSB   VT-ALP BOM    DEL    AI     
CX171                              A359                 ESTI   B-LRX  HKG    PER    CX     
QR116                              B788                 ADSB   A7-BCK FCO    DOH    QR     
YV5905                             CRJ9                 ADSB   N903FJ MAF    DFW    YV     
DL1660                             B712                 ADSB   N934AT PHF    ATL    DL     
DEFTO                              C152                 MLAT   D-EFTO                      
ZH9360                             A320                 ADSB   B-9980 HGH    JJN    ZH     
O66186                             A320                 ADSB   PR-AVQ CGB    BSB    O6     
LH1444                             A321                 ADSB   D-AIDN FRA    DME    LH     
JT110                              A333                 ESTI   PK-LEH CGK    JED    JT     
UA876                              B772                 OCEA   N799UA HND    SFO    UA     
LX22                               A333                 ADSB   HB-JHI GVA    JFK    LX     
BLOCKED                            PC12                 ASDI   BLOCKEDK1S5   KSFF          
IB2603                             A332                 ADSB   EC-MOU BCN    EZE    IB     
GMA817                             GLF6                 ADSB   VP-BCT                      
C8573                              B744                 ESTI   LX-YCV KIX    HKG    C8     
WY247                              B738                 ADSB   A4O-BAFMCT    DEL    WY     
TU215                              A320                 ADSB   TS-IMF IST    TUN    TU     
5Y805                              B762                 ASDI   N652GT CVG    SFO    5Y     
5X914                              A306                 ADSB   N163UP SDF    BUR    5X     
AA1645                             E190                 ASDI          DCA    PHL    AA     
QR928                              B77W                 ADSB   A7-BAV DOH    MNL    QR     
UA304                              B739                 MLAT   N72405 BOS    IAH    UA     
BLOCKED                            F900                 ASDI   BLOCKEDLIT    HOU           
CZ3261                             B738                 ADSB   B-5339 NNG    SHA    CZ     
EY987                              B77L                 ESTI   A6-DDE FRA    BGI    EY     
BA152                              B772                 ADSB   G-YMMP IKA    LHR    BA     
K4247                              B744                 ADSB   N745CK LEJ    HKG    K4     
N2080Q                             C82S                 ADSB   N2080Q                      
EV5472                             CRJ7                 MLAT   N707EV ORF    LGA    EV     
AA83                               B789                 OCEA   N820AL LAX    AKL    AA     
DL2485                             MD88                 MLAT   N963DL BNA    ATL    DL     
G31135                             B738                 ADSB   PR-GGT CWB    CGH    G3     
MF8463                             B738                 ADSB   B-5487 JJN    KWE    MF     
U26982                             A319                 ADSB   G-EZFJ LIS    EDI    U2     
SQ2                                B77W                 ESTI   9V-SWU SIN    HKG    SQ     
LX332                              A320                 ADSB   HB-IJI ZRH    LHR    LX     
NZ8                                B77W                 OCEA   ZK-OKM AKL    SFO    NZ     
FR2544                             B738                 ADSB   EI-ENL POZ    ALC    FR     
AS874                                                   OCEA          OGG    SEA    AS     
TK1815                             B738                 ADSB   TC-JVB IST    NCE    TK     
6B297                              B738                 ADSB   SE-RFT ARN    ACE    6B     
JL94                               B788                 ADSB   JA821J GMP    HND    JL     
DE4570                             B753                 ADSB   D-ABOK FRA    FNC    DE     
B2952                              B733                 ADSB   EW-308PADME    MSQ    B2     
RCH707                             C17                  MLAT   03-3114                     
UA847                              B763                 ESTI   N656UA IAH    SCL    UA     
9U833                              A320                 ADSB   ER-AXV KIV    STN    9U     
PC1191                             B738                 ADSB   TC-CPG SAW    ATH    PC     
AE385                              AT76                 ADSB   B-16853TSA    MZG    AE     
SU1413                             B738                 ADSB   VP-BKK SVX    SVO    SU     
LO6533                             B788                 ADSB   SP-LRG WAW    GIG    LO     
CA887                              B789                 OCEA   B-7879 PEK    LAX    CA     
AC7171                             B77W                 ADSB   C-FIUL MIA    YYZ    AC     
A3840                              A320                 ADSB   SX-DNC ATH    DUS    A3     
TP1934                             AT76                 ADSB   CS-DJE LIS    OPO    TP     
TG475                              B744                 ADSB   HS-TGF BKK    SYD    TG     
5X62                               MD11                 ADSB   N257UP ONT    ANC    5X     
EW50                               A320                 ADSB   D-AIQL CGN    TXL    EW     
CZ3040                             A319                 ADSB   B-6195 SIN    CAN    CZ     
9C8979                             A320                 ADSB   B-6972 PVG    CNX    9C     
UA38                               B789                 OCEA   N27959 SIN    LAX    UA     
CX320                              B77W                 ADSB   B-KQB  MAD    HKG    CX     
EXJ01                              F2TH                 ADSB   G-LATE                      
NH639                              B738                 ADSB   JA79AN HND    IWK    NH     
0Q164                              DH8D                 ASDI          YUL    YUY    0Q     
EDV3899                            CRJ9                 ASDI          ROC    JFK           
WN1421                             B737                 ADSB   N931WN PIT    TPA    WN     
FX120                              A306                 ADSB   N681FE MEM    YEG    FX     
FX1417                             A306                 ADSB   N677FE MEM    BUR    FX     
TK1794                             A321                 ADSB   TC-JSL ARN    IST    TK     
BRO34                              BE20                 ADSB   G-WCCP                      
GS6546                             A320                 ADSB   B-1692 CGO    HAK    GS     
AZ1724                             A321                 ADSB   I-BIXR CTA    FCO    AZ     
LXA9J                              E35L                 MLAT   LX-GLS                      
WN1874                             B737                 ADSB   N7845A BWI    BNA    WN     
                                   A20N                 ADSB   PR-OBH                      
ID7702                             A320                 ADSB   PK-LUK UPG    HLP    ID     
AS193                              B739                 ASDI   N472AS LAX    ANC    AS     
AC788                              B763                 ADSB   C-FPCA LAX    YYZ    AC     
                                   B762                 MLAT   N714AX                      
SL8042                             B739                 ADSB   HS-LTS DMK    HGH    SL     
CM300                              B738                 ADSB   HP-1536CMPGYE    PTY    CM     
LX2084                             A321                 ADSB   HB-IOO ZRH    LIS    LX     
KL1884                             E190                 MLAT   PH-EZS NUE    AMS    KL     
OZ173                              A321                 ADSB   HL8277 CTS    ICN    OZ     
                                   A332                 ADSB   B-5975                      
GFD4A                              LJ35                 ADSB   D-CGFN                      
AZ423                              A320                 ADSB   EI-EIA TXL    FCO    AZ     
N919SA                             F900                 ADSB   N919SA KMQS   BED           
BR216                              B77W                 ADSB   B-16725SIN    TPE    BR     
X32197                             B738                 ADSB   D-ATUE TFS    MUC    X3     
DJ694                              B738                 ESTI   VH-VUF PER    MEL    DJ     
TB4936                             B737                 ADSB   OO-JAS NTE    RAK    TB     
SK936                              A343                 ADSB   OY-KBM SFO    CPH    SK     
AI191                              B77W                 ADSB   VT-ALM BOM    EWR    AI     
WN480                              B737                 MLAT   N7816B ISP    MCO    WN     
QY6892                             B752                 ADSB   G-DHKF LEJ    EMA    QY     
KE484                              A333                 ADSB   HL8003 HAN    ICN    KE     
SU2033                             SU95                 ADSB   RA-89022BUD    SVO    SU     
FX1728                             B763                 ADSB   N117FE IND    DEN    FX     
DL6307                             CRJ7                 ADSB   N355CA               G7     
FR8658                             B738                 ADSB   EI-EBM MLA    VNO    FR     
LH1751                             A320                 ADSB   D-AIZC ATH    MUC    LH     
U22683                             A319                 ADSB   OE-LQW MXP    EDI    U2     
SQ318                              B77W                 ESTI   9V-SWZ SIN    LHR    SQ     
BA165                              B772                 ADSB   G-ZZZA LHR    TLV    BA     
VJT525                             CL60                 ADSB   9H-VFI STN    BGR           
SM3356                             A320                 ADSB   SU-BTM CDG    CAI    SM     
GJ8872                             A320                 ADSB   B-8451 LYI    KMG    GJ     
SU2537                             A320                 ADSB   VP-BCE DUS    SVO    SU     
VY3271                             A320                 ADSB   EC-MAI ZAZ    TFS    VY     
N9135                              A21N                 ESTI   SE-RKA ARN    FUE    N9     
ZX7289                             B190                 MLAT   C-GAAU ROC    YYZ    ZX     
CI836                              A333                 ADSB   B-18308BKK    TPE    CI     
6E3326                             A320                 ESTI   VT-IEY CCU    MAA    6E     
RW3756                             E170                 ADSB   N732YX DTW    EWR    RW     
KE651                              A388                 ADSB   HL7612 ICN    BKK    KE     
JQ672                              A320                 ESTI   VH-VQS SYD    DRW    JQ     
KL892                              B789                 ESTI   PH-BHI CTU    AMS    KL     
US5597                             CRJ9                 ADSB   N561NN CLE    CLT    US     
N145PJ                             LJ45                 ADSB   N145PJ TYS    KOBE          
5X9767                             B752                 ADSB   N434UP MHT    MDT    5X     
EI563                              A320                 ADSB   EI-DVJ BCN    DUB    EI     
ANA8                               B77W                 OCEA   87-24589NRT    SFO    NH     
OD271                              B739                 ADSB   9M-LNK KUL    ATQ    OD     
WY101                              A333                 ADSB   A4O-DE MCT    LHR    WY     
9C8643                             A320                 ADSB   B-6667 SJW    NNG    9C     
AY80                               A333                 ESTI   OH-LTM NGO    HEL    AY     
JL4                                B77W                 ADSB   JA737J NRT    JFK    JL     
DL2380                             MD88                 MLAT   N958DL BTV    ATL    DL     
QG878                              A320                 ADSB   PK-GLM PNK    SUB    QG     
TK1765                             A321                 ADSB   TC-JRB IST    WAW    TK     
EDV3615                            CRJ9                 MLAT   N331PQ                      
EK163                              B77W                 ADSB   A6-EGU DXB    DUB    EK     
SU1713                             B77W                 ADSB   VQ-BQE KHV    SVO    SU     
DL1065                             MD88                 MLAT   N964DL BDL    ATL    DL     
GYAKM                              YK50                 MLAT   G-YAKM                      
HU7402                                                  ADSB          SJW    CAN    HU     
TK1672                             A321                 ADSB   TC-JRF CGN    IST    TK     
MWT650                             C650                 ASDI   N650PJ FSD    BIS           
BA286                              B772                 ESTI   G-YMMN SFO    LHR    BA     
KE905                              B748                 ESTI   HL7631 ICN    FRA    KE     
AH3016                             B738                 ADSB   7T-VKI ALG    IST    AH     
                                   B772                 ADSB   JA008D                      
6E6685                             A20N                 ESTI   VT-ITT HYD    DEL    6E     
UAE5KP                             A388                 ADSB   A6-EEH DXB    JFK    EK     
BA65                               B744                 ADSB   G-CIVB LHR    NBO    BA     
UC1507                             B77L                 ADSB   N776LA VCP    EZE    UC     
RS7517                             E170                 MLAT   C-FEKD YYG    YYZ    RS     
G37646                             B738                 ADSB   PR-GTT GIG    MVD    G3     
TR177                              A320                 ADSB   9V-TRX NGB    SIN    TR     
QR909                              A388                 ESTI   A7-APB SYD    DOH    QR     
D81001                             B738                 ADSB   EI-GBG ARN    FCO    D8     
EV4171                             E145                 MLAT   N16911 CHA    EWR    EV     
KE35                               B77W                 ASDI   HL8209 ICN    ATL    KE     
ND3658                             A319                 ESTI   HB-JOG ZRH    SPC    ND     
GFD5A                              LJ35                 ADSB   D-CGFJ                      
AR1300                             A332                 OCEA   LV-FNI EZE    JFK    AR     
TFX161                             SW4                  ADSB   VH-UZP ROK    BNE           
TL141                              E170                 ADSB   VH-ANV CNS    WTB    TL     
AA1562                             B738                 ADSB   N858NN BOS    ORD    AA     
AF1575                             A319                 ADSB   OH-LVH HEL    CDG    AY     
K4977                              B744                 ADSB   N744CK CVG    BRU    K4     
DL588                              B763                 OCEA   N1607B PVG    SEA    DL     
WW9321                             A321                 OCEA   TF-JOY KEF    YMX    WW     
WR3218                             DH8D                 ASDI          YQT    YYZ    WR     
PC310                              A20N                 ADSB   TC-NBB DUS    ADB    PC     
TV9876                             A319                 ESTI   B-6425 MIG    LXA    TV     
JL440                              B738                 ADSB   JA346J MYJ    HND    JL     
H272                               A319                 ADSB   CC-AHC CCP    SCL    H2     
FZ344                              B738                 ADSB   A6-FGD LYP    DXB    FZ     
FR7045                             B738                 ADSB   EI-FTC AGP    DUB    FR     
SA203                              A346                 ADSB   ZS-SNC JNB    JFK    SA     
G9202                              A320                 ADSB   A6-AOO IKA    SHJ    G9     
KL723                              A332                 ADSB   PH-AOF AMS    HAV    KL     
NK311                              A321                 ADSB   N682NK ACY    MCO    NK     
W64903                             A320                 ADSB   HA-LPO TGD    FMM    W6     
MI238                              B738                 ADSB   9V-MGC SIN    KNO    MI     
6H764                              B738                 ESTI   OK-TSA BEG    TLV    6H     
MF847                              B738                 ESTI   B-5789 XMN    KUL    MF     
NH273                              B773                 ADSB   JA751A HND    FUK    NH     
U24532                             A319                 ADSB   OE-LKE BCN    SXF    U2     
HU7226                             B738                 ADSB   B-1727 NGB    WEF    HU     
T93606                             A320                 ADSB   LY-SPD HRG    VNO    T9     
U28252                             A319                 ADSB   G-EZGA FCO    LGW    U2     
ZH9657                             B738                 ADSB   B-5737 CAN    SHE    ZH     
MU5617                             A320                 ADSB   B-6009 KHN    KMG    MU     
DR6546                             B738                 ESTI   B-1595 TVS    CTU    DR     
7C2501                             B738                 ADSB   HL7779 ICN    BKI    7C     
9C8769                             A320                 ADSB   B-1895 SJW    XMN    9C     
                                   BE9L                 ADSB   PR-ARC                      
5Y8579                             B763                 ADSB   N649GT KDOV   HHN    5Y     
3S513                              B77L                 ADSB   D-AALF DXB    LEJ    3S     
B61505                             A320                 MLAT   N615JB EWR    FLL    B6     
DL47                               B763                 ESTI   N187DN AMS    JFK    DL     
FR8372                             B738                 ADSB   EI-DHZ CRL    WRO    FR     
LXJ444                             LJ45                 ASDI   N444FX FA54   KCRG          
HX706                              A333                 ADSB   B-LNU  DPS    HKG    HX     
QR244                              A321                 ADSB   A7-AIA SAW    DOH    QR     
G74528                             CRJ7                 MLAT   N166GJ ORF    ORD    G7     
KE2711                             B772                 ADSB   HL7751 GMP    HND    KE     
DJ898                              B738                 ADSB   VH-VOS SYD    MEL    DJ     
DL1686                             A320                 MLAT   N351NW DCA    DTW    DL     
AA2057                             A321                 ADSB   N157UW MCO    CLT    AA     
DE3327                             B753                 ADSB   D-ABOH MLE    FRA    DE     
SK4756                             B738                 ADSB   LN-RPL FRA    OSL    SK     
QK933                              DH8D                 ASDI          YQM    YYZ    QK     
KA893                              A321                 ADSB   B-HTK  PVG    HKG    KA     
CM173                              B738                 ESTI   HP-1721CMPMIA    PTY    CM     
FR8266                             B738                 ADSB   EI-DYP STN    KTW    FR     
CI762                              A359                 ADSB   B-18902CGK    TPE    CI     
JAF3CX                             E190                 ADSB   OO-JVA ALC    ANR    TB     
OONLT                              PC12                 ADSB   OO-NLT                      
PPJSS                              SR22                 ADSB   PP-JSS                      
LX2058                             A320                 ADSB   HB-IJF ZRH    BIO    LX     
TU283                              B736                 ADSB   TS-IOL TLS    TUN    TU     
WN194                              B737                 ADSB   N7846A TUL    DAL    WN     
FX1472                             A306                 ADSB   N689FE MEM    OKC    FX     
EDV3632                            CRJ9                 MLAT   N176PQ SYR    JFK           
US5297                             CRJ9                 ADSB   N573NN AVP    CLT    US     
AA2303                             A320                 ADSB   PK-LAO CGK    SIN    ID     
HX80                               A332                 ESTI   B-LNJ  HKG    YVR    HX     
JL487                              B738                 ADSB   JA345J HND    TAK    JL     
AX4329                             E145                 ASDI          YYZ    DCA    AX     
RW3443                             E170                 MLAT   N640RW CLE    LGA    RW     
EDV3868                            CRJ9                 MLAT   N272PQ PIT    LGA           
G41776                             A320                 ASDI   N234NV FLL    KJQF   G4     
OO7400                             CRJ2                 MLAT   N418SW BGM    DTW    OO     
FM879                              B738                 ESTI   B-1948 PVG    KBV    FM     
BX8895                             A320                 ADSB   HL8055 GMP    USN    BX     
SWR16F                             A333                 ESTI   HB-JHA ZRH    JFK    LX     
SQ326                              B77W                 ADSB   9V-SNB SIN    FRA    SQ     
KE249                              B77L                 ESTI   HL8043 ANC    JFK    KE     
5X104                              B763                 ADSB   N341UP RFD    ANC    5X     
AV9302                             A320                 ADSB   N345AV BOG    MDE    AV     
TT416                              A320                 ESTI   VH-VNJ PER    MEL    TT     
FR5494                             B738                 ADSB   EI-DWR BGY    MAD    FR     
FR3102                             B738                 ADSB   EI-GDS DUB    AMS    FR     
NX161                              A321                 ADSB   B-MAQ  NGB    MFM    NX     
S73326                             A320                 ADSB   VP-BOJ EVN    OVB    S7     
AT791                              B737                 ADSB   CN-RNM TLS    CMN    AT     
DKKOV                              DIMO                 ADSB   D-KKOC                      
LXJ583                             CL35                 ADSB   N583FX YUL    MDW           
HU492                              A333                 ADSB   B-5972 BRU    PEK    HU     
AZ421                              A320                 ADSB   EI-DTE DUS    FCO    AZ     
CA1425                             B738                 ADSB   B-1761 PEK    CTU    CA     
TL117                              E170                 ADSB   VH-ANF DRW    MCV    TL     
LX41                               B77W                 ESTI   HB-JNF LAX    ZRH    LX     
N775MK                             P46T                 ADSB   N775MK                      
3U8952                             A320                 ADSB   B-6778 XMN    CSX    3U     
IB3243                             A320                 ADSB   EC-MDK VCE    MAD    IB     
AA3339                             E145                 ASDI          CHS    MIA    MQ     
KU788                              B77W                 ADSB   9K-AOL JED    KWI    KU     
QZ172                              A320                 ADSB   PK-AXV KUL    BDO    QZ     
BA283                              B744                 ADSB   G-CIVX LHR    LAX    BA     
JL95                               B763                 ADSB   JA653J HND    GMP    JL     
EDV3464                            CRJ9                 MLAT   N310PQ PIT    JFK           
JL335                              B763                 ADSB   JA601J HND    FUK    JL     
WHE01                                                   ADSB                               
MH6193                             A332                 ADSB   9M-MUD NRT    PEN    MH     
TP784                              A320                 MLAT   CS-TNQ LIS    ARN    TP     
B6275                              A320                 ADSB   N629JB BDL    SJU    B6     
3S530                              B77L                 ADSB   D-AALH FRA    BKK    3S     
MU5351                             A321                 ADSB   B-6923 PVG    SZX    MU     
B78712                             AT76                 ADSB   B-17008MZG    KHH    B7     
A3853                              A320                 ADSB   SX-DVR TXL    ATH    A3     
QR708                              B77W                 ADSB   A7-BEK IAD    DOH    QR     
CZ3878                             A320                 ADSB   B-6816 FOC    CAN    CZ     
SU1104                             A320                 ADSB   VQ-BSJ SVO    KRR    SU     
GWMRN                              TBM9                 ADSB   G-WMRN                      
GNPTV                              AS55                 MLAT   G-NPTV                      
VN262                              B789                 ADSB   VN-A863SGN    HAN    VN     
PPJFJ                              BE9L                 ADSB   PP-JFJ                      
WS243                              B737                 ADSB   C-GWJT YHZ    YYZ    WS     
U27637                             A319                 ADSB   G-EZIN LIS    BOD    U2     
VS401                              A333                 ADSB   G-VNYC DXB    LHR    VS     
SU2607                             B738                 ADSB   VP-BGN LIS    SVO    SU     
KL421                              A333                 ADSB   PH-AKF AMS    DMM    KL     
VTM532                             SW4                  ASDI          SHV    SLW           
AER43                              B190                 ASDI          ANC    YAK           
SNPSHT01                            GLEX                 MLAT   ZJ690                       
CI62                               B77W                 ADSB   B-18002FRA    TPE    CI     
KL1250                             B737                 ADSB   PH-BGH OPO    AMS    KL     
DJ799                              B738                 ADSB   VH-VUI BNE    CNS    DJ     
AI102                              B77W                 ADSB   VT-ALN DEL    BOM    AI     
HU7125                             B738                 ADSB   B-5713 PEK    BAV    HU     
3K204                              A320                 ADSB   9V-JSJ CGK    SIN    3K     
SQ982                              B772                 ADSB   9V-SRL SIN    BKK    SQ     
EK9920                             B77L                 ESTI   A6-EFS MEX    UIO    EK     
SU2612                             A321                 ADSB   VP-BJX SVO    MXP    SU     
FR136                              B738                 ADSB   EI-DYB SXF    BLQ    FR     
SV37                               B77W                 ESTI   HZ-AK40RUH    IAD    SV     
JJ3912                             A319                 ADSB   PT-TMC CGH    SDU    JJ     
BW1504                             AT76                 ADSB   9Y-TTD POS    TAB    BW     
JJ8066                             B77W                 ESTI   PT-MUI GRU    LIM    JJ     
U61002                             A321                 ADSB   VQ-BKH AYT    DME    U6     
BT314                              DH8D                 MLAT   YL-BAX TLL    RIX    BT     
EY411                              A332                 ADSB   A6-EYG KUL    AUH    EY     
WMA881                             C208                 ASDI          KFXE   ASD           
N82FW                              C82S                 ASDI   N82FW  KSUA   OPF           
OZ551                              A333                 ADSB   HL8259 ICN    IST    OZ     
JT318                              B739                 ADSB   PK-LFZ SUB    BDJ    JT     
BA173                              B772                 ADSB   G-VIIB LHR    JFK    BA     
2P9741                             A320                 ADSB   RP-C8396KLO    HGH    2P     
MH725                              B738                 ADSB   9M-MXC KUL    CGK    MH     
HBAL046                            BALL                 ADSB   N/A                         
JQ978                              A320                 ESTI   VH-VQK CNS    PER    JQ     
NX135                              A321                 ADSB   B-MCE  PVG    MFM    NX     
N515MS                             P28A                 ASDI   N515MS KSCK   TCY           
MF834                              B738                 ADSB   B-5565 BKK    XMN    MF     
OS58                               B772                 ADSB   OE-LPC HKG    VIE    OS     
PR112                              B77W                 OCEA   RP-C7772MNL    LAX    PR     
FX5384                             B77L                 ADSB   N850FD CDG    DEL    FX     
D83197                             B738                 ADSB   EI-FVS ARN    CPH    D8     
FM886                              B738                 ESTI   B-1721 KUL    PVG    FM     
REGA1                              EC45                 ADSB   HB-ZRD                      
2Y239                              B733                 ADSB   PK-MYY               2Y     
FR173                              B738                 ADSB   EI-FRE NCL    DUB    FR     
KE714                              B739                 ADSB   HL7716 NRT    PUS    KE     
NZ287                              B789                 ASDI   ZK-NZI AKL    PVG    NZ     
EK9961                             B77L                 ESTI   A6-EFO DWC    FRA    EK     
CX595                              A333                 ADSB   B-LAK  KIX    HKG    CX     
O66389                             A320                 ADSB   PR-OCP CGR    BSB    O6     
CA941                              A333                 ESTI   B-5901 PEK    DXB    CA     
JT941                              B738                 ADSB   PK-LKZ BPN    BDO    JT     
SQ345                              A388                 ADSB   9V-SKS ZRH    SIN    SQ     
ZH9675                             B738                 ADSB   B-5608 CAN    HRB    ZH     
FR7736                             B738                 ADSB   EI-EKZ EIN    LPA    FR     
SRK5LT                             D328                 MLAT   HB-AEO BRN    LCY    SX     
DR6537                             B738                 ADSB   B-1597 KMG    LHW    DR     
BE494                              DH8D                 MLAT   G-JECM EXT    BHD    BE     
MU723                              A321                 ADSB   B-8572 PVG    HKG    MU     
CMB556                             B744                 ADSB   N415MC                      
EY416                              A332                 ESTI   A6-EYI AUH    KUL    EY     
CZ303                              B788                 ADSB   B-2737 CAN    LHR    CZ     
ZE921                              B738                 ADSB   HL8048 PUS    BKK    ZE     
9C8850                             A320                 ADSB   B-8817 SHE    PVG    9C     
FR1371                             B738                 ADSB   EI-FOJ NAP    SKG    FR     
G9221                              A320                 ADSB   A6-ANW SHJ    AJF    G9     
BLOCKED                            LJ35                 ASDI   BLOCKEDKFXE   MIA           
TR134                              A320                 ESTI   9V-TRW SIN    XIY    TR     
BX113                              A321                 ADSB   HL7731 NRT    PUS    BX     
AI822                              A319                 ADSB   VT-SCW IXJ    DEL    AI     
DL2116                                                  OCEA          KOA    LAX    DL     
MU9689                             B738                 ADSB   B-5473 WUH    LZH    MU     
US5267                             CRJ9                 ADSB   N554NN MDT    CLT    US     
BR30                               B77W                 ASDI   B-16721TPE    JFK    BR     
QF77                               B738                 ESTI   VH-XZH PER    SIN    QF     
UA1557                             B738                 ADSB   N76533 OGG    SFO    UA     
TK1677                             B738                 ADSB   TC-JHU IST    CGN    TK     
F3151                              A320                 ADSB   HZ-FAA JED    ELQ    F3     
EK238                              B77W                 ESTI   A6-EPY BOS    DXB    EK     
LS909                              B738                 ESTI   G-GDFR MAN    FUE    LS     
AI135                              B788                 ESTI   VT-ANR DEL    MAD    AI     
FR2761                             B738                 ADSB   EI-DPG BRI    MAD    FR     
PR117                              B77W                 OCEA   RP-C7778YVR    MNL    PR     
9I654                              AT76                 ADSB   VT-AIW               9I     
AD5316                             E195                 ADSB   PR-AUN THE    FOR    AD     
CZ6900                             A321                 ADSB   B-6580 HGH    DLC    CZ     
RW3582                             E170                 ADSB   N733YX PVD    EWR    RW     
MS785                              B738                 ADSB   SU-GEG CAI    FRA    MS     
6E3988                             A320                 ADSB   VT-IGZ BLR    DEL    6E     
IT215                              A320                 ADSB   B-50007OKJ    TPE    IT     
XY529                              A320                 ADSB   VP-CXD JED    KWI    XY     
DP505                              B738                 ESTI   VP-BPJ MCX    LED    DP     
TB4365                             B738                 ADSB   OO-TUK NTE    SID    TB     
NJE209P                            E55P                 ADSB   CS-PHA                      
JW924                              A320                 ADSB   JA13VA CTS    NRT    JW     
A53001                             E170                 ADSB   F-HBXG DUS    NTE    A5     
HU7205                             B738                 ADSB   B-5712 HAK    YIH    HU     
KL882                              B789                 ADSB   PH-BHD HGH    AMS    KL     
JQ988                              A320                 ESTI   VH-VFK SYD    PER    JQ     
QR8983                             B77L                 ADSB   A7-BFJ ICN    DOH    QR     
XJ702                              A333                 ADSB   HS-XTD DMK    ICN    XJ     
VJ776                              A21N                 ADSB   VN-A646              VJ     
QR954                              B788                 ADSB   A7-BCI DOH    CGK    QR     
7C133                              B738                 ADSB   HL8051 GMP    CJU    7C     
U22582                             A320                 ADSB   OE-IVO PRG    MXP    U2     
AD6930                             AT76                 ADSB   PR-AQV CWB    FLN    AD     
NH831                              B763                 ESTI   JA618A NRT    SGN    NH     
TG305                              A333                 ADSB   HS-TBF BKK    RGN    TG     
VN1375                             A321                 ADSB   VN-A608HUI    SGN    VN     
AA954                              B77W                 ADSB   N734AR EZE    JFK    AA     
UA1784                             B752                 ADSB   N21108 EWR    MCO    UA     
ZH9024                             B738                 ESTI   B-1756 SIN    SZX    ZH     
W64302                             A320                 ADSB   HA-LYR LTN    SOF    W6     
HU7808                             A333                 ADSB   B-5950 CAN    PEK    HU     
ZE511                              B738                 ADSB   HL8264 ICN    BKK    ZE     
QF594                              B738                 ESTI   VH-VZU PER    BNE    QF     
KE643                              B773                 ADSB   HL7532 ICN    SIN    KE     
BT641                              BCS3                 ADSB   YL-CSD RIX    ZRH    BT     
3O466                              A320                 ADSB   CN-NMK BLQ    CMN    3O     
CLJ918                             B733                 ADSB   G-MISG                      
BA248                              B788                 ADSB   G-ZBJH GIG    LHR    BA     
AF1735                             A320                 ADSB   F-GKXR TXL    CDG    AF     
WR3428                             DH8D                 ASDI          YHZ    YYT    WR     
OA316                              A320                 ADSB   SX-DVG ATH    HER    OA     
QK931                              DH8D                 ASDI   C-GGCI YQM    YYZ    QK     
WN2117                             B737                 ADSB   N7729A CLE    BWI    WN     
EV5434                             CRJ7                 ASDI   N758EV RIC    LGA    EV     
EK406                              A388                 ESTI   A6-EEK DXB    MEL    EK     
VN523                              A359                 ADSB   VN-A892PVG    SGN    VN     
TK1591                             A332                 ADSB   A4O-DG IST    FRA    WY     
SEMJI                              BE20                 ADSB   SE-MJI                      
AK130                              A20N                 ADSB   9M-AGF KUL    HKG    AK     
U6728                              A320                 ADSB   VQ-BDM FCO    SVX    U6     
CZ3184                             A321                 ADSB   B-6578 CKG    PEK    CZ     
QZ557                              A320                 ADSB   PK-AXX KUL    DPS    QZ     
JJ3130                             A320                 ADSB   PR-MYR CGH    VIX    JJ     
FR1567                             B738                 ADSB   EI-FTD SVQ    FRA    FR     
DL408                              B763                 OCEA   N179DN ZRH    JFK    DL     
EK380                              A388                 ESTI   A6-EEC DXB    HKG    EK     
AA1538                             B738                 ASDI   N200NV LAX    MIA    AA     
CZ6094                             A321                 ADSB   B-6353 HKT    SZX    CZ     
FR1303                             B738                 ADSB   EI-DCF NAP    CRL    FR     
FR2834                             B738                 ADSB   EI-ESR BCN    CRL    FR     
BLOCKED                            GLF6                 ADSB   BLOCKED                     
CA977                              A333                 ESTI   B-5913 PEK    CGK    CA     
LH721                              A388                 ADSB   D-AIMB PEK    FRA    LH     
BR55                               B77W                 ESTI   B-16722ORD    TPE    BR     
QF72                               B738                 ADSB   VH-XZK SIN    PER    QF     
AI302                              B788                 ADSB   VT-ANU DEL    SYD    AI     
ET500                              B77L                 ADSB   ET-ANP DUB    IAD    ET     
DT651                              B77W                 ESTI   D2-TEK LIS    LAD    DT     
U26962                             A320                 ADSB   G-EZOD PRG    EDI    U2     
VPCOH                              B738                 ADSB   VP-COH                      
HV6094                             B737                 ADSB   PH-XRC FAO    RTM    HV     
FR1432                             B738                 ADSB   EI-FZS MXP    LPL    FR     
WN2032                             B737                 ASDI          MAF    DAL    WN     
MAL7079                            B752                 ASDI   C-FMEQ YWG    YVR           
AA894                              A319                 ADSB   N705UW PIT    CLT    AA     
JL671                              B738                 ADSB   JA349J HND    OIT    JL     
Y4822                              A320                 ESTI   N508VL TIJ    MEX    Y4     
GA529                              B738                 ADSB   PK-GFP BDJ    CGK    GA     
MN494                              B738                 ADSB   ZS-ZWO CPT    HLA    MN     
AA127                              A321                 ADSB   N164NN MCO    DFW    AA     
V9107                              A320                 ADSB   HS-VKC CNX    BKK    V9     
NQ8475                             B763                 ADSB   JA605F NRT    ICN    NQ     
WN542                              B737                 MLAT   N570WN RDU    BNA    WN     
B62802                             E190                 MLAT   N317JB JFK    BUF    B6     
CA1959                             A321                 ADSB   B-8799 WNZ    CTU    CA     
DL1222                             MD88                 ADSB   N975DL BWI    ATL    DL     
AD9203                             E195                 ADSB   PR-AXR CWB    VCP    AD     
5Y592                              B762                 ASDI          CVG    DTW    5Y     
RA67242                            GLEX                 ADSB   RA-67242              RA     
AA1368                             B738                 ADSB   N944NN BOS    PHX    AA     
Y87498                             B744                 ESTI   B-2432 AMS    TSN    Y8     
SN3169                             A319                 ADSB   OO-SSD BRU    NAP    SN     
                                   E145                 ADSB   N16571                      
A328                               A320                 ADSB   SX-DGI MUC    ATH    A3     
QR713                              B77W                 ADSB   A7-BAA DOH    IAH    QR     
AA1174                             MD83                 MLAT   N962TW DAY    DFW    AA     
CX812                              B77W                 ADSB   B-KPA  HKG    BOS    CX     
EK9841                             B77L                 ADSB   A6-EFG HKG    DWC    EK     
WY232                              B739                 ESTI   A4O-BK HYD    MCT    WY     
DCM6443                            BE20                 ASDI          BDL    KRYY          
APK76                              B734                 ADSB   ZK-PAQ CHC    AKL           
EV5549                             CRJ9                 MLAT   N538CA HPN    ATL    EV     
EDV4087                            CRJ9                 ASDI          YUL    ATL           
SA476                              A320                 ADSB   ZS-SZJ ELS    JNB    SA     
TR675                              A320                 ADSB   9V-TAX CNX    SIN    TR     
DL57                               B763                 ADSB   N190DN AMS    SLC    DL     
EV3999                             E145                 ASDI          CRW    ORD    EV     
WN575                              B737                 MLAT   N436WN CLT    HOU    WN     
F91671                             A321                 ADSB   N719FR PHL    MCO    F9     
PSC400                             PC12                 ASDI          YHU    YTZ           
C54933                             E45X                 MLAT   N16183 IAD    EWR    C5     
6E854                              A20N                 ADSB   VT-WGL IXZ    BLR    6E     
VN1205                             A321                 ADSB   VN-A602HAN    VCA    VN     
FR3874                             B738                 ADSB   EI-DAR TSF    MLA    FR     
NH110                              B77W                 ASDI   JA787A HND    JFK    NH     
SPWKM                              B407                 ADSB   SP-WKM                      
GF2                                A332                 ADSB   A9C-KC LHR    BAH    GF     
JQ797                              A320                 ADSB   VH-VFX MCY    MEL    JQ     
OZ334                              A333                 ADSB   HL8293 PEK    ICN    OZ     
CZ3059                             A333                 ESTI   B-8358 CAN    CMB    CZ     
SA23                               A320                 ADSB   ZS-SZB HRE    JNB    SA     
                                   DV20                 MLAT   TF-FGA                      
TK16                               B77W                 ESTI   TC-LJK GRU    IST    TK     
ETP08                              AJET                 MLAT   ZJ647                       
NF51                               B738                 ESTI   YJ-AV8 AKL    VLI    NF     
OO3184                             CRJ7                 ASDI   N706SK CLE    ORD    OO     
F91680                             A320                 ADSB   N201FR LAS    MCO    F9     
5X3                                MD11                 ADSB   N296UP HKG    DXB    5X     
CX402                              A333                 ADSB   B-LAM  HKG    TPE    CX     
9W819                              B738                 ADSB   VT-JGW CCU    BOM    9W     
FX1422                             B763                 ADSB   N128FE MEM    SAN    FX     
CX86                               B748                 ADSB   B-LJE  ANC    MEX    CX     
SK574                              B737                 ADSB   SE-REY CDG    ARN    SK     
                                   E190                 ADSB   PR-AZH                      
FX134                              A310                 ADSB   N807FD MEM    YWG    FX     
SV738                              B772                 ESTI   HZ-AKW JED    LHE    SV     
TK2012                             A333                 ADSB   TC-LOD IST    ASR    TK     
JL443                              B738                 ADSB   JA341J HND    MYJ    JL     
HU7752                             A333                 ADSB   B-6539 CTU    SZX    HU     
THY1UX                             A320                 ADSB   TC-JPJ SOF    IST    TK     
CHI41                              S92                  ASDI          YYT                  
TG409                              A359                 ADSB   HS-THE BKK    SIN    TG     
G8718                              A320                 ADSB   VT-GOS AMD    DEL    G8     
G76278                             CRJ7                 ASDI          YUL    DTW    G7     
WN484                              B737                 MLAT   N294WN CVG    BWI    WN     
CK227                              B744                 ESTI   B-2428 ANC    ORD    CK     
P9801                                                   OCEA          GUM    HNL    P9     
U24522                             A320                 ADSB   G-EZPO AGP    SXF    U2     
BMR203B                            E145                 MLAT   G-CKAG               BM     
KU101                              B77W                 ADSB   9K-AOF KWI    LHR    KU     
FR9045                             B738                 ADSB   EI-FOZ BCN    STN    FR     
N83RH                              PAY2                 ADSB   N83RH                       
B61403                             A321                 ESTI   N975JT JFK    SJU    B6     
                                   E195                 ADSB   PR-AYO                      
CZ6425                             A320                 ADSB   B-9912 DLC    CSX    CZ     
HBFVM                              PC12                 ADSB   HB-FVM                      
SQ335                              B77W                 ADSB   9V-SWL CDG    SIN    SQ     
G8537                              A320                 ESTI   VT-WAI CCU    AMD    G8     
SU2142                             A320                 ESTI   VQ-BSL SVO    AYT    SU     
DL1274                             MD88                 MLAT   N988DL BDL    DTW    DL     
UA48                               B772                 ESTI   N78005 EWR    BOM    UA     
FX38                               B77L                 ASDI          MEM    CDG    FX     
SJ589                              B738                 ADSB   PK-CMH CGK    AMQ    SJ     
RW3496                             E170                 ASDI          GRR    ORD    RW     
BLOCKED                            C441                 ADSB   BLOCKED                     
SK944                              A343                 ADSB   LN-RKF ORD    CPH    SK     
CI5383                             B744                 ESTI   B-18709ANC    TPE    CI     
LR641                              A320                 ESTI   N496TA LAX    GUA    LR     
DY1104                             B738                 ADSB   LN-NGG OSL    SXF    DY     
FX130                              DC10                 ADSB   N316FE MEM    YMX    FX     
UA252                              B772                 ADSB   N781UA HNL    IAH    UA     
SV41                               B77W                 ESTI   HZ-AK38JED    LAX    SV     
DD7217                             B738                 ADSB   HS-DBC URT    DMK    DD     
DL2129                             MD88                 MLAT   N993DL ROC    ATL    DL     
I23856                             A320                 ADSB   EC-MEG MAD    ACE    I2     
5Y593                              B744                 ASDI   N496MC ANC    HGH    5Y     
AYY118                             LJ35                 ADSB   D-CFIV                      
FV6633                             A319                 ADSB   VP-BIV LED    NCE    FV     
NH539                              B788                 ADSB   JA817A HND    TAK    NH     
I23906                             A320                 ADSB   EC-MEH MAD    FUE    I2     
JL286                              B738                 ADSB   JA342J IZO    HND    JL     
AF7643                             A319                 ADSB   F-GRXF LYS    CDG    AF     
AD5019                             A20N                 ADSB   PR-YRC REC    GRU    AD     
GRFCB                              P208                 ADSB   G-RFCB                      
GBIOB                              C172                 MLAT   G-BIOB                      
US5497                             CRJ7                 MLAT   N545PB MHT    DCA    US     
JT820                              B738                 ADSB   PK-LPR CGK    PLW    JT     
AK888                              A320                 ADSB   9M-AQQ KUL    DMK    AK     
FR8827                             B738                 ADSB   EI-FRT TRN    BDS    FR     
B61840                             E190                 MLAT   N190JB CLE    BOS    B6     
9W473                              B738                 ADSB   VT-JBG BOM    GOI    9W     
SQ305                              B77W                 ADSB   9V-SWH LHR    SIN    SQ     
BR396                              B77W                 ADSB   B-16730SGN    TPE    BR     
FR111                              B738                 ADSB   EI-FTR PMI    SXF    FR     
CFRJU                                                   ASDI   CFRJU                       
BA8                                B772                 ADSB   G-YMMG HND    LHR    BA     
CA991                              B77W                 ADSB   B-7973 PEK    YVR    CA     
DL143                              A333                 ESTI   N805NW AMS    SEA    DL     
LH172                              A321                 ADSB   D-AISN FRA    RAK    LH     
LH2229                             A320                 ADSB   D-AIZJ CDG    MUC    LH     
5X960                              B763                 ADSB   N342UP SDF    KMHR   5X     
DL2045                             B712                 MLAT   N977AT CLT    DTW    DL     
N3869Y                             BE55                 ASDI   N3869Y K9A0   TRI           
QR777                              B77W                 ADSB   A7-BAH DOH    MIA    QR     
N700SP                             TBM7                 ASDI   N700SP PGD    ADH           
CZ458                              B77L                 ADSB   B-2072 AMS    CAN    CZ     
IX142                              B738                 ADSB   VT-AXR DXB    DEL    IX     
B6727                              E190                 MLAT   N368JB BOS    BWI    B6     
AA4713                             E170                 ADSB   N424YX DCA    ATL    RW     
BLOCKED                            GLF6                 ESTI   BLOCKEDSJC    HND           
CA1625                             A321                 ADSB   B-6961 PEK    SHE    CA     
TX540                              A333                 ESTI   F-ORLY ORY    PTP    TX     
BID5A                              SW4                  ADSB   D-CNAG                      
JT697                              B738                 ADSB   PK-LOI KOE    SUB    JT     
EK231                              A388                 ADSB   A6-EEG DXB    IAD    EK     
3O126                              A320                 ADSB   CN-NMM AMS    FEZ    3O     
ME500                              E550                 ADSB   OD-CXJ               ME     
CX234                              B77W                 ADSB   B-KQU  MXP    HKG    CX     
6E534                              A320                 ADSB   VT-INP IXB    CCU    6E     
GF972                              A320                 ADSB   A9C-AJ AMM    BAH    GF     
LH262                              E195                 ADSB   I-ADJL FRA    VRN    LH     
MU554                              A332                 ADSB   B-6538 CDG    PVG    MU     
WS1201                             B737                 ADSB   C-GWSN LGA    YYZ    WS     
QR957                              B788                 ESTI   A7-BCB CGK    DOH    QR     
GHOPE                              BE33                 MLAT   G-HOPE                      
DL960                              B739                 ASDI   N812DN IND    ATL    DL     
NH172                              B788                 OCEA   JA822A NRT    SJC    NH     
UA2037                             B738                 ADSB   N14249 EWR    IAH    UA     
AA1916                             A319                 ADSB   N703UW BOS    CLT    AA     
BA122                              B772                 ADSB   G-ZZZB DOH    LHR    BA     
TU788                              A320                 ADSB   TS-IMN DJE    BRU    TU     
MU571                              A333                 ESTI   B-8970 PVG    HNL    MU     
DY7110                             B788                 ESTI   LN-LND LAX    BCN    DY     
AI773                              A319                 ADSB   VT-SCV CCU    BOM    AI     
LS888                              B738                 ADSB   G-GDFD PRG    MAN    LS     
BA459                              A321                 ADSB   G-EUXF MAD    LHR    BA     
OZ1155                             A321                 ADSB   HL8279 KIX    GMP    OZ     
WN388                              B737                 MLAT   N902WN BOS    BWI    WN     
N20TV                              B06                  ADSB   N20TV                       
LS1401                             B738                 ADSB   G-JZHU STN    ACE    LS     
FD538                              PC12                 ADSB   VH-FVE                      
AC16                               B77W                 ADSB   C-FIUW HKG    YYZ    AC     
ES121                              B762                 ADSB   A9C-DHJBAH    BLR    ES     
QR1126                             A332                 ADSB   A7-ACG DOH    MCT    QR     
AA71                               B772                 ESTI   N765AN FRA    DFW    AA     
6E383                              A320                 ADSB   VT-IFT AMD    HYD    6E     
LH413                              A346                 ADSB   D-AIHF DUB    MUC    LH     
AS1034                             A320                 ADSB   N629VA SFO    JFK    AS     
ID6018                             B739                 ADSB   PK-LBH KNO    KUL    ID     
KE907                              B77W                 ADSB   HL8210 ICN    LHR    KE     
NK316                              A319                 ADSB   N534NK DTW    LGA    NK     
AA2332                             A321                 ADSB   N929AA SAT    DFW    AA     
N4277                              B738                 ADSB   VQ-BDC SVO    EVN    N4     
FM9454                             B737                 ADSB   B-5269 KMG    SHA    FM     
WN680                              B737                 ASDI   N416WN DCA    DAL    WN     
JJ3533                             A321                 ADSB   PT-MXA CWB    BSB    JJ     
Y4923                              A319                 ESTI   XA-VOE LAX    ZCL    Y4     
HY762                              A320                 ADSB   UK32019ALA    TAS    HY     
UT799                              B735                 ADSB   VQ-BJM VKO    MUC    UT     
O66194                             A20N                 ADSB   PR-OBL GRU    JPA    O6     
AA1699                             A319                 ADSB   N724UW DTW    CLT    AA     
AM404                              B738                 ADSB   XA-AMM MEX    JFK    AM     
GCBYO                              ULAC                 ADSB   G-CBYO                      
UA657                              B737                 MLAT   N13716 LGA    IAH    UA     
3U8855                             A321                 ESTI   B-9936 CKG    CXR    3U     
ZW3922                             CRJ2                 ASDI          CHS    ORD    ZW     
OK894                              A319                 ADSB   OK-MEL PRG    SVO    OK     
G9627                              A320                 ADSB   A6-ANL SHJ    CAI    G9     
OO5503                             E170                 ADSB   N167SY CVG    ORD    OO     
RM744                              B737                 ADSB   4L-TGM MRV    EVN    RM     
AA304                              B738                 ADSB   N978NN LGA    ORD    AA     
YAKTEAM                            YK52                 MLAT   G-YAKN                      
BLOCKED                            G150                 MLAT   BLOCKEDRDG    PIT           
MU5098                             A332                 ADSB   B-6126 TSA    SHA    MU     
SV258                              A333                 ADSB   HZ-AQ11IST    MED    SV     
WN1095                             B738                 ADSB   N8536Z MCI    LAS    WN     
UX1014                             E195                 ADSB   EC-LKX LGW    MAD    UX     
JL18                               B789                 ESTI   JA862J NRT    YVR    JL     
WYM2102                            C208                 ASDI          SJU    STT           
B61516                             A321                 ADSB   N967JT SFO    JFK    B6     
FR8554                             B738                 ADSB   EI-DCW CDT    STN    FR     
DS1067                             A319                 ADSB   HB-JYG BSL    AGP    DS     
UA891                              B772                 ADSB   N785UA SFO    PVG    UA     
MF877                              B738                 ADSB   B-1749 FOC    KUL    MF     
LH453                              A346                 ADSB   D-AIHY LAX    MUC    LH     
US4816                             E145                 ASDI          ISP    PHL    US     
FD3210                             A320                 ADSB   HS-BBB CEI    DMK    FD     
QR232                              A320                 ADSB   A7-AHO BEG    DOH    QR     
JL771                              B789                 ESTI   JA865J NRT    SYD    JL     
1L533                              C68A                 ADSB   N533QS APF    BTR    1L     
G31257                             B737                 ADSB   PR-GEE FLN    CGH    G3     
W63091                             A320                 ADSB   HA-LYA OTP    DTM    W6     
QZ267                              A320                 ADSB   PK-AXR SIN    CGK    QZ     
CZ6050                             B738                 ADSB   B-1701 CXR    CAN    CZ     
LBQ651                             E50P                 ASDI          MKC    LUK           
LH334                              A319                 ADSB   D-AIBJ FRA    NAP    LH     
XT208                              A320                 ADSB   PK-AZA CGK    KUL    XT     
                                   A319                 MLAT   C-FYKC                      
MS844                              B738                 ADSB   SU-GEI TUN    CAI    MS     
TK1819                             A320                 ADSB   TC-JPF SAW    CDG    TK     
PUL104                             PC12                 ASDI          YXL    YQT           
AF139                              A332                 ADSB   F-GZCF WUH    CDG    AF     
DJ471                              B738                 ESTI   VH-YFW PER    BNE    DJ     
8C3371                             B763                 ADSB   N313AZ PHX    CVG    8C     
CGGP                               A189                 ADSB   CGGP                        
FIN2XR                             A333                 ADSB   OH-LTS LHR    HEL    AY     
U26977                             A320                 ADSB   OE-IVQ EDI    SXF    U2     
C28345                             C208                 ASDI   N747FE IND    PKB    C2     
BA195                              B772                 OCEA   G-YMMH LHR    IAH    BA     
6E26                               A320                 ESTI   VT-IAR HYD    DXB    6E     
BA118                              B772                 ADSB   G-YMMU BLR    LHR    BA     
WN146                              B738                 ADSB   N8605E ATL    DEN    WN     
CNS312                             PC12                 ASDI   N391AF BDR    BTV           
ZI756                              A320                 ADSB   F-HFUL ORN    TLS    ZI     
W63548                             A320                 ADSB   HA-LPW CIA    TSR    W6     
MU9932                             A320                 ADSB   B-6011               MU     
6E596                              A320                 ADSB   VT-IEE CCU    BOM    6E     
BY5420                             B738                 ADSB   G-FDZG STN    ACE    BY     
FM9268                             B738                 ADSB   B-6866 CKG    TXN    FM     
FD3115                             A320                 ADSB   HS-ABH HDY    DMK    FD     
BLOCKED                            SW3                  ASDI   BLOCKEDYXL    YQK           
AF1534                             A320                 ADSB   F-GKXH CDG    TXL    AF     
RPC1213                            C56X                 ADSB   RP-C1213                     
CX838                              B77W                 ESTI   B-HNR  HKG    YVR    CX     
US4776                             E145                 ASDI   N628AE CHO    PHL    US     
KL1345                             E190                 ADSB   PH-EZF AMS    BLL    KL     
9S594                              B734                 ASDI          CVG    DEN    9S     
N2AQ                               B06                  ADSB   N2AQ                        
FIN8VD                             A321                 ADSB   OH-LZN CDG    HEL    AY     
LX39                               B77W                 ADSB   HB-JNC SFO    ZRH    LX     
WN1567                             B738                 ADSB   N8657B TPA    HOU    WN     
AF1349                             A320                 ADSB   F-GKXV BCN    CDG    AF     
BGA145A                            A3ST                 ADSB   F-GSTA               4Y     
5X894                              B763                 ASDI   N331UP SDF    ABQ    5X     
FR114                              B738                 ADSB   EI-DHN DUB    LGW    FR     
OKVFR                              C172                 MLAT   OK-VFR                      
NH409                              A321                 ADSB   JA112A HND    AXT    NH     
AF792                              B77W                 ADSB   F-GZNN ORY    PTP    AF     
DD7818                             B738                 ADSB   HS-DBP DMK    NST    DD     
CNS181                             PC12                 ASDI   N653AF CLE    MKE           
5Y74                               B744                 ESTI   N475MC BOG    MIA    5Y     
JL809                              B763                 ESTI   JA610J NRT    TPE    JL     
HV6630                             B738                 ADSB   PH-HSC FNC    AMS    HV     
2P2146                             A321                 ADSB   RP-C9921ILO    MNL    2P     
FR3969                             B738                 ADSB   EI-FIR CAG    BLQ    FR     
AE281                              PA31                 ADSB   VH-XGX               AE     
VJ943                              A321                 ADSB   VN-A634TPE    HAN    VJ     
UA433                              B752                 ASDI   N546UA BOS    SFO    UA     
AZ1466                             A321                 ADSB   EI-IXV VCE    FCO    AZ     
DL84                               B764                 ADSB   N837MH ATL    CDG    DL     
SV1113                             A333                 ADSB   HZ-AQ24DMM    JED    SV     
AA1658                             A321                 ADSB   N921US LAS    MIA    AA     
U21391                             A320                 ADSB   G-EZRG GVA    ORY    U2     
DL445                              B764                 ADSB   N829MH FCO    JFK    DL     
GCIRM                              RV12                 ADSB   G-CIRM                      
EK235                              B77W                 ADSB   A6-EQE DXB    ORD    EK     
LO6538                             B788                 ADSB   SP-LRD VRA    WAW    LO     
VJT780                             GLEX                 ADSB   9H-IGH                      
TK10                               B77W                 ADSB   TC-LJG LAX    IST    TK     
AA1241                             B738                 ADSB   N877NN DTW    DFW    AA     
6R982                              A30B                 ESTI          CVG    GDL    6R     
JJ3564                             A320                 ADSB   PR-MYP GIG    REC    JJ     
NJE541M                            CL35                 ADSB   CS-CHB                      
0B3770                             B738                 ADSB   YR-BMI TLV    CLJ    0B     
SU213                              B77W                 ESTI   VP-BGB HKG    SVO    SU     
WN2097                             B737                 ASDI          DTW    DEN    WN     
FALCON07                            A169                 ADSB   A6-SBK                      
SU1212                             A320                 ADSB   VP-BJA SVO    KUF    SU     
CA458                              A333                 ADSB   B-8689 CDG    CTU    CA     
AT571                              B737                 ADSB   CN-RNR TUN    CMN    AT     
UA90                               B77W                 ADSB   N2140U EWR    TLV    UA     
DE62                               B763                 ADSB   D-ABUK FRA    LAS    DE     
MU5049                             A320                 ADSB   B-2335 YNT    ICN    MU     
MN623                              B738                 ADSB   ZS-ZWA JNB    DUR    MN     
CX883                              B77W                 ASDI   B-KPK  LAX    HKG    CX     
TK7195                             B738                 ADSB   TC-SNO NKT    ESB    TK     
TG665                              B77W                 ADSB   HS-TKV PVG    BKK    TG     
TR514                              A320                 ESTI   9V-TAT SIN    DAC    TR     
JO519                              B737                 ADSB   OY-JTY BLL    LPA    JO     
EDV3936                            CRJ9                 MLAT   N330PQ RDU    LGA           
JL151                              B738                 ADSB   JA318J HND    AOJ    JL     
NSI101                             C340                 ASDI          K6S8   SLC           
OO5176                             CRJ2                 ASDI          ABE    ORD    OO     
FX1775                             B752                 ASDI   N977FD CID    MSN    FX     
MU231                              A333                 ESTI   B-8862 PVG    CMB    MU     
FR4816                             B738                 ADSB   EI-FIY CUF    CAG    FR     
N54861                             PA27                 ADSB   N54861 KFMY   KTMB          
BM1734                             E145                 MLAT   G-RJXF BRQ    MUC    BM     
AIB38XA                            A21N                 ADSB   D-AVXA                      
AA2209                             A321                 ADSB   N160AN MCO    MIA    AA     
THY86T                             A333                 ADSB   TC-LOG FRA    IST    TK     
AA648                              A321                 ADSB   N913US RSW    CLT    AA     
JL25                               B788                 ADSB   JA822J HND    PEK    JL     
AI607                              A319                 ADSB   VT-SCO BOM    BLR    AI     
BLOCKED                            LJ35                 ASDI   BLOCKEDPHX    PVR           
B6397                              A320                 MLAT   N529JB BOS    ATL    B6     
HKC6319                            A332                 ADSB   B-LNW                       
SEJSP                              EC45                 ADSB   SE-JSP                      
VS63                               B744                 ADSB   G-VROM LGW    HAV    VS     
TK1524                             A321                 ADSB   TC-JSK DUS    IST    TK     
G31488                             B738                 ADSB   PR-GXA CGH    CGR    G3     
UA1281                                                  OCEA          OGG    LAX    UA     
WS1861                                                  OCEA          HNL    YYC    WS     
BA207                              B744                 ESTI   G-BNLN LHR    MIA    BA     
NH650                              A321                 ADSB   JA113A KMJ    HND    NH     
EXS12G                             B738                 ADSB   G-JZBD ALC    STN    LS     
MM110                              A320                 ADSB   JA820P CTS    KIX    MM     
DL836                              A333                 ADSB   N824NW HNL    ATL    DL     
IA140                              B738                 ADSB   YI-ASI BEY    NJF    IA     
YV6237                             CRJ7                 MLAT   N505MJ CLE    IAD    YV     
U62951                             A319                 ADSB   VP-BJV SVX    GYD    U6     
VY6948                             A320                 ADSB   EC-MAH FCO    TLV    VY     
HBAL097                            BALL                 ADSB   N/A                         
MQ3791                             E135                 ADSB   N809AE ACT    DFW    MQ     
EW117                              A332                 ADSB   D-AXGA SLL    CGN    EW     
CX157                              A359                 ADSB   B-LRB  HKG    BNE    CX     
CZ6762                             A320                 ADSB   B-6582 SHE    SYX    CZ     
TT776                              A320                 ESTI   VH-VNR BNE    PER    TT     
I51523                             A320                 ADSB   VT-HYD BLR    HYD    I5     
BA108                              B772                 ADSB   G-VIIJ DXB    LHR    BA     
OO4662                             CRJ2                 ASDI          AVP    DTW    OO     
LH2473                             A320                 ADSB   D-AIUU LHR    MUC    LH     
N22UB                              C25C                 ADSB   N22UB                       
                                   B738                 ADSB   PR-GTQ                      
6E804                              A320                 ADSB   VT-IFG RPR    BOM    6E     
JD5290                             A319                 ADSB   B-6416 CGQ    TVS    JD     
KE503                              B77L                 ESTI   HL8226 ICN    LHR    KE     
SU2581                             A321                 ADSB   VP-BTR LHR    SVO    SU     
ZXP03                              EC35                 MLAT   PH-PXC                      
FR2665                             B738                 ADSB   EI-EKJ WMI    MAN    FR     
DL2218                                                  OCEA          HNL    SEA    DL     
EV2863                             CRJ7                 MLAT   N611QX GRK    DFW    EV     
RW3587                             E170                 MLAT   N856RW RDU    EWR    RW     
MU551                              A332                 ESTI   B-5962 PVG    LHR    MU     
AR1652                             B738                 ADSB   LV-GVE AEP    NQN    AR     
SK996                              A343                 ESTI   OY-KBI PEK    CPH    SK     
WN1399                             B737                 ASDI          MDW    BNA    WN     
LOT31F                             E170                 MLAT   SP-LDG VCE    WAW    LO     
JJ3562                             A321                 ADSB   PT-MXN GRU    BSB    JJ     
VY7828                             A320                 ADSB   EC-KLT BCN    LGW    VY     
CI109                              A333                 ADSB   B-18358NRT    TPE    CI     
LP2476                             B763                 ADSB   CC-BDB BCN    LIM    LP     
TK7245                             B738                 ADSB   TC-SBF ESB    SAW    TK     
S7170                              A320                 ADSB   VP-BOM OMS    DME    S7     
FR4069                             B738                 ADSB   EI-DCI PRG    KRK    FR     
WN1569                             B738                 ASDI   N8678E BHM    MCO    WN     
JQ17                               B788                 ADSB   VH-VKL MEL    HKT    JQ     
BA3279                             E190                 MLAT   G-LCYX LCY    FLR    CJ     
AA862                              A319                 ASDI          TPA    MIA    AA     
                                   A320                 ADSB   N218NV                      
EK75                               A388                 ADSB   A6-EOT DXB    CDG    EK     
SJ258                              B738                 ADSB   PK-CMR CGK    SUB    SJ     
TR596                              B788                 ESTI   9V-OFE SIN    JED    TR     
U21458                             A320                 ADSB   G-EZWP OPO    GVA    U2     
N50878                             BE58                 ADSB   N50878                      
THY3EC                             B738                 ADSB   TC-JVV LIS    IST    TK     
AD4378                             AT76                 ADSB   PR-AQE VCP    ARU    AD     
FR1589                             B738                 ADSB   EI-EKA TFS    FRA    FR     
NC767                              RJ1H                 ADSB   VH-NJY YMMI   PER    NC     
BA479                              A320                 ADSB   G-EUYD BCN    LHR    BA     
FR1884                             B738                 ADSB   EI-EBH STN    LIS    FR     
QR8231                             A332                 ESTI   A7-AFH DOH    BUD    QR     
9I870                              AT76                 ADSB   VT-AIT SAG    HYD    9I     
                                   A148                 ADSB   RA-61704                     
WN996                              B738                 ADSB   N8653A HOU    STL    WN     
AA958                              A319                 ADSB   N70020 ATL    MIA    AA     
SQ446                              A333                 ADSB   9V-SSD SIN    DAC    SQ     
LH1338                             A321                 ADSB   D-AISC FRA    BUD    LH     
QR8111                             B77L                 ASDI   A7-BFC MXP    ORD    QR     
QF719                              B738                 ADSB   VH-XZE CBR    PER    QF     
N9BQ                               B06                  MLAT   N9BQ                        
C39100                             F100                 ADSB   9A-BTD               C3     
SU526                              B738                 ESTI   VP-BMD SVO    DXB    SU     
F927                               A320                 ADSB   N218FR CVG    CUN    F9     
OO7427                             CRJ2                 ASDI          ABE    DTW    OO     
DL128                              B763                 ASDI   N1608  PEK    SEA    DL     
WN1505                             B737                 MLAT   N728SW LGA    DAL    WN     
U23246                             A319                 ADSB   G-EZFF LJU    STN    U2     
BA280                              B789                 ADSB   G-ZBKD LAX    LHR    BA     
PG214                              AT76                 ADSB   HS-PZF THS    BKK    PG     
TG974                              B772                 ESTI   HS-TJR BKK    DME    TG     
AZ630                              A332                 ADSB   EI-EJK FCO    MIA    AZ     
ZF774                              B738                 ESTI   VQ-BMW DXB    DME    ZF     
BLOCKED                            GLF5                 ADSB   BLOCKED                     
6E834                              A320                 ADSB   VT-INS BOM    HYD    6E     
QY1033                             B77L                 ADSB   B-2092 PVG    AMS    QY     
IG3740                             B763                 ADSB   I-AIGG REC    MXP    IG     
EK361                              B77W                 ADSB   A6-ENZ DPS    DXB    EK     
KFS725                             B722                 ASDI   N725CK CLE    SHV           
US5113                             CRJ2                 MLAT   N226JS ORF    DCA    US     
DL1443                             MD90                 MLAT   N924DN PIT    DTW    DL     
BA904                              A319                 ADSB   G-EUPX LHR    FRA    BA     
E4561                              B738                 ADSB   SP-ESA               E4     
EDV3338                            CRJ2                 ASDI          BQK    ATL           
UA839                              B789                 ESTI   N26966 LAX    SYD    UA     
                                   MD88                 ADSB   N904DL                      
HV5106                             B738                 ADSB   PH-HSI VLC    EIN    HV     
ECA8C                              C25A                 ADSB   D-IJOA                      
DL2138                             A320                 MLAT   N378NW CLE    DTW    DL     
SC4700                             B738                 ADSB   B-1510 TSN    INC    SC     
AA1731                             E190                 MLAT   N947UW ATL    PHL    AA     
GA863                              A332                 ADSB   PK-GPP HKG    CGK    GA     
CZ6939                             B738                 ADSB   B-7969 WUH    XMN    CZ     
9W912                              B738                 ESTI   VT-JFB DEL    COK    9W     
G8559                              A20N                 ADSB   VT-WGD LKO    HYD    G8     
DV457                              B763                 ESTI   UP-B6703ALA    UTP    DV     
FX1496                             B752                 ADSB   N952FD MEM    GJT    FX     
UX1066                             B738                 ADSB   EC-LPQ MXP    MAD    UX     
HD36                               B737                 ADSB   JA12AN CTS    HND    HD     
D85872                             B738                 ADSB   EI-FVH LPA    OSL    D8     
WN1873                             B737                 MLAT   N956WN ALB    MCO    WN     
KE123                              A333                 ADSB   HL8025 ICN    BNE    KE     
A3661                              A320                 ADSB   SX-DVV MXP    ATH    A3     
EK312                              B77W                 ESTI   A6-ECM DXB    HND    EK     
QR216                              A320                 ESTI   A7-AHF ZAG    DOH    QR     
LS168                              B738                 ADSB   G-JZHR GLA    ACE    LS     
QF1                                A388                 ESTI   VH-OQC SYD    DXB    QF     
BA53                               B772                 ESTI   G-VIIM LHR    SEA    BA     
TK597                              A332                 ADSB   TC-JIN IST    DSS    TK     
WN1049                             B737                 ASDI   N470WN IND    MCO    WN     
AF976                              B772                 ESTI   F-GSPU CDG    LBV    AF     
I23946                             A320                 ADSB   EC-LKG MAD    TFN    I2     
AV18                               B788                 ADSB   N785AV BOG    BCN    AV     
KA903                              A333                 ADSB   B-HYI  PEK    HKG    KA     
B6837                              A321                 OCEA   N913JB JFK    STI    B6     
FZ8065                             B738                 ADSB   A6-FDY DXB    KWI    FZ     
EK210                              B77W                 ADSB   A6-ECF EWR    ATH    EK     
DL179                              B763                 ADSB   N181DN AMS    PDX    DL     
F9157                              A320                 ASDI          MCO    DSM    F9     
LH1892                             A319                 ADSB   D-AILA MUC    BIO    LH     
ID6017                             B739                 ADSB   PK-LBI KUL    DPS    ID     
E45867                             B738                 ADSB   SP-ENT WRO    TFS    E4     
AY1770                             A321                 ADSB   OH-LZE FCO    HEL    AY     
TK7019                             B738                 ADSB   TC-SAI ADB    ESB    TK     
CZ431                              B77L                 ADSB   B-2028 ANC    ORD    CZ     
                                   PA44                 MLAT   TF-FTA                      
VS301                              B789                 ADSB   G-VWOO DEL    LHR    VS     
4O2228                             A320                 ADSB   XA-RBA MEX    GDL    4O     
U28294                             A320                 ADSB   G-EZOC INN    LGW    U2     
CJ7302                             E170                 MLAT   G-CIXW               CJ     
N459CD                             SR22                 ADSB   N459CD KRMN   KMLJ          
RJ125                              A319                 ADSB   JY-AYN AMM    FRA    RJ     
HU7646                             B738                 ADSB   B-5853 ZUH    CGO    HU     
CZ395                              A321                 ADSB   B-6663 CAN    PEN    CZ     
DEHFV                              C82S                 MLAT   D-EHFV                      
AM3                                B789                 OCEA   XA-ADD MEX    CDG    AM     
5X218                              B763                 ADSB   N312UP CDG    PHL    5X     
DD7520                             B738                 ADSB   HS-DBG DMK    HKT    DD     
6E847                              A320                 ADSB   VT-IEQ MAA    BLR    6E     
AZ408                              E190                 ADSB   EI-RNE LIN    FRA    AZ     
OS655                              E195                 ADSB   OE-LWF VIE    KIV    OS     
GYARD                              R44                  MLAT   G-YARD                      
GGAEA                              A210                 MLAT   G-GAEA                      
WN1775                             B737                 ADSB   N421LV BWI    MCO    WN     
CX84                               B748                 ESTI   B-LJF  HKG    ANC    CX     
DL2636                             MD88                 ASDI   N909DE CLE    ATL    DL     
EDV3773                            CRJ2                 ASDI   N8683B MHT    LGA           
BA907                              A319                 ADSB   G-EUPS FRA    LHR    BA     
MI488                              B738                 ADSB   9V-MGI SIN    CCU    MI     
BY486                              B763                 ESTI   G-OBYF ARN    POP    BY     
SU1311                             B738                 ADSB   VP-BKN MRV    SVO    SU     
U26002                             A320                 ADSB   G-EZUF KEF    BRS    U2     
AA4446                             E170                 ADSB   N130HQ IND    CLT    RW     
WN2134                             B737                 ASDI          JAX    ATL    WN     
GTOOO                              G2CA                 ADSB   G-TOOO                      
N777RR                             C210                 ADSB   N777RR                      
RO383                              A318                 ADSB   YR-ASC OTP    CDG    RO     
7G89                               A320                 ADSB   JA21MC HND    KKJ    7G     
NH97                               B772                 ADSB   JA711A HND    KIX    NH     
WS4                                B763                 ADSB   C-FWAD LGW    YYZ    WS     
AC689                              E190                 ASDI   C-FHNV YYT    YYZ    AC     
WY274                              B738                 ESTI   A4O-BAHJAI    MCT    WY     
RW3603                             E170                 MLAT   N857RW IND    EWR    RW     
AM99                               B788                 OCEA   N967AM PVG    MEX    AM     
QR8139                             B77L                 ADSB   A7-BFL AMS    DOH    QR     
RV1888                             B763                 ADSB   C-GHLA OGG    YYC    RV     
VL7001                             A320                 ADSB   LZ-MDO               VL     
OO4749                             CRJ7                 ASDI          DAY    DTW    OO     
LO4                                B788                 ADSB   SP-LRH ORD    WAW    LO     
TK1874                             A321                 ADSB   TC-JRO MXP    IST    TK     
AIP5014                            BE99                 ASDI          MSO    BIL           
CNS777                             PC12                 ASDI          BGR    BOS           
AI661                              A319                 ADSB   VT-SCI BOM    GOI    AI     
FR1286                             B738                 ADSB   EI-EBS MRS    EDI    FR     
MU513                              A321                 ADSB   B-8163 PVG    REP    MU     
TK414                              A332                 ADSB   TC-JIL VKO    IST    TK     
CX451                              B773                 ADSB   B-HNO  TPE    HKG    CX     
LP2484                             B763                 ADSB   CC-CWY LIM    MAD    LP     
TK78                               B77W                 ADSB   TC-JJU MIA    IST    TK     
UA871                              B77W                 ESTI   N2737U SFO    TPE    UA     
KFS533                             B734                 ASDI          CVG    CID           
AH1003                             A332                 ADSB   7T-VJB CDG    ALG    AH     
U21950                             A320                 ADSB   G-EZRN GVA    MAN    U2     
CHH7571N                            B738                 ADSB   B-1496               HU     
TP803                              A319                 ADSB   CS-TTE MXP    LIS    TP     
RO416                              B738                 ADSB   YR-BGK MAD    OTP    RO     
NZ6                                B77W                 OCEA   ZK-OKS AKL    LAX    NZ     
S792                               A321                 ADSB   VQ-BQI UFA    DME    S7     
KLM92V                             B737                 ADSB   PH-BGF ARN    AMS    KL     
7C208                              B738                 ADSB   HL8064 GMP    PUS    7C     
KE667                              A333                 ADSB   HL7720 ICN    CNX    KE     
MAL8060                            C208                 ASDI          YWG    YQT           
5X213                              MD11                 ADSB   N286UP SDF    CGN    5X     
DL1299                             B753                 ASDI   N591NW MCO    DTW    DL     
WN799                              B738                 ADSB   N8550Q BWI    TPA    WN     
AA2060                             A319                 MLAT   N746UW CLT    LGA    AA     
N176M                              BE20                 ADSB   N176M  CLU    KPTK          
NK943                              A320                 ADSB   N608NK ACY    RSW    NK     
WN373                              B737                 MLAT   N481WN PHL    BNA    WN     
NZ176                              A343                 ESTI   9H-SUN PER    AKL    NZ     
THY1XZ                             B738                 ADSB   TC-SBV               TK     
THY5DA                             B739                 ADSB   TC-JYM IST    MAD    TK     
EW8975                             A320                 ADSB   D-ABNU ZAG    TXL    EW     
TP846                              A319                 ADSB   CS-TTP LIS    FCO    TP     
SK1610                             A319                 ADSB   OY-KBT GVA    CPH    SK     
SQ633                              A359                 ADSB   9V-SMH HND    SIN    SQ     
YW8820                             CRJX                 ADSB   EC-MLN MAD    AGP    YW     
TK1633                             A321                 ADSB   TC-JRP IST    MUC    TK     
KL539                              A332                 ADSB   PH-AOB AMS    KGL    KL     
SL634                              B738                 ADSB   HS-LUV DMK    UBP    SL     
KQ100                              B788                 ADSB   5Y-KZG NBO    LHR    KQ     
DL2127                             A321                 ADSB   N333DX FLL    ATL    DL     
UA5884                             CRJ7                 ASDI          BRO    IAH    OO     
                                   P28A                 ADSB   D-EMHW                      
YV5882                             CRJ9                 MLAT   N944LR CRP    DFW    YV     
AA1468                             B738                 ADSB   N806NN JFK    PHX    AA     
BAW38P                             B744                 ESTI   G-CIVO PHX    LHR    BA     
WW405                              A321                 ADSB   TF-GMA CDG    KEF    WW     
AA2522                             MD83                 MLAT   N964TW IAH    DFW    AA     
UA872                              B77W                 OCEA   N2142U TPE    SFO    UA     
FD3332                             A320                 ADSB   HS-ABI URT    DMK    FD     
WN1956                             B737                 ASDI          SJU    FLL    WN     
EI495                              A321                 ADSB   EI-CPE FAO    DUB    EI     
MF8098                             B738                 ADSB   B-7846 HRB    WUH    MF     
GK41                               A320                 ESTI   JA20JJ NRT    MNL    GK     
BA1445                             A321                 ADSB   G-EUXM EDI    LHR    BA     
VN303                              A321                 ADSB   VN-A398NRT    SGN    VN     
N57433                             BL8                  ADSB   N57433                      
EK209                              B77W                 ADSB   A6-ECS DXB    ATH    EK     
KL757                              B772                 ADSB   PH-BQF AMS    PTY    KL     
DL1928                             MD90                 ASDI   N944DN RDU    MSP    DL     
RW4525                             E170                 ADSB   N125HQ PIT    LGA    RW     
5X411                              B763                 ADSB   N346UP EZE    BOG    5X     
LX181                              B77W                 ESTI   HB-JND BKK    ZRH    LX     
OO3072                             CRJ2                 ASDI          FNT    ORD    OO     
AY74                               A359                 ADSB   OH-LWC NRT    HEL    AY     
VJ336                              A320                 ADSB   VN-A696PQC    SGN    VJ     
QZ545                              A320                 ADSB   PK-AZE PER    DPS    QZ     
NZ288                              B789                 ESTI   ZK-NZG PVG    AKL    NZ     
TK1985                             B77W                 ADSB   TC-JJT IST    LHR    TK     
B6569                              A320                 ADSB   N729JB BOS    FLL    B6     
B61279                             E190                 ADSB   N266JB DCA    FLL    B6     
AK362                              A320                 ADSB   9M-AHQ KUL    SUB    AK     
BVN8515                            C208                 ADSB   N861FE ATL    CSG           
7C3106                             B738                 ADSB   HL8087 ICN    GUM    7C     
UA107                              B772                 ADSB   N782UA MUC    IAD    UA     
5X858                              B763                 ADSB   N360UP SDF    PHX    5X     
NJE727C                            C68A                 ADSB   CS-LTB                      
TK2737                             B738                 ADSB   TC-JGS KFS    IST    TK     
FR2040                             B738                 ADSB   EI-FOS CTA    TSF    FR     
EK29                               A388                 ADSB   A6-EOG DXB    LHR    EK     
AF7432                             AT76                 ADSB   F-HOPX ORY    CFE    AF     
EK229                              B77W                 ESTI   A6-EGI DXB    SEA    EK     
EQL                                DA40                 ADSB   VH-EQL                      
U24432                             A319                 ADSB   G-EZFY LIS    LYS    U2     
JT838                              B738                 ADSB   PK-LJV SUB    PNK    JT     
6E978                              A20N                 ADSB   VT-ITX BLR    DEL    6E     
CO540                              A320                 ADSB   5B-DCY LCA    LGW    CO     
EY833                              A332                 ESTI   A6-EYM HKG    AUH    EY     
GJ8813                             A320                 ESTI   B-8593 HGH    NNG    GJ     
CZ6344                             A320                 ADSB   B-9931 CAN    SHE    CZ     
NH823                              B763                 ESTI   JA622A NRT    TPE    NH     
ETD89Q                             B77W                 ESTI   A6-ETM AUH    LAX    EY     
UA979                              B764                 ESTI   N67058 EWR    EZE    UA     
UA1882                             B752                 ADSB   N14121 LAX    EWR    UA     
AA2026                             A321                 ADSB   N977UY PHX    PHL    AA     
EK72                               A388                 ADSB   A6-EDH CDG    DXB    EK     
KQ504                              B738                 ADSB   5Y-CYE NBO    ACC    KQ     
VY8354                             A320                 ADSB   EC-MFK BIO    AMS    VY     
QR149                              A333                 ADSB   A7-AED DOH    MAD    QR     
HA4                                                     OCEA          HNL    LAX    HA     
JJ3057                             A320                 ADSB   PR-MHF BSB    POA    JJ     
MT1702                             A321                 ADSB   G-NIKO BRS    ACE    MT     
EK236                              B77W                 ADSB   A6-EPZ ORD    DXB    EK     
BA805                              A319                 ADSB   G-EUOG BLL    LHR    BA     
DS1526                             A320                 ADSB   HB-JXF TLV    GVA    DS     
BA233                              B77W                 ADSB   G-STBG LHR    DME    BA     
CM499                              B737                 ESTI          MSY    PTY    CM     
PR1860                             A343                 ADSB   RP-C3439CEB    MNL    PR     
MH852                              B738                 ADSB   9M-MXD DPS    KUL    MH     
SU271                              B77W                 ADSB   VQ-BUA BKK    SVO    SU     
AS850                                                   OCEA          KOA    SEA    AS     
HU7280                             A333                 ADSB   B-8118 SYX    PEK    HU     
DL2584                             B752                 ASDI          RSW    ATL    DL     
TG466                              A359                 ADSB   HS-THD MEL    BKK    TG     
DL400                              B763                 ESTI   N176DN FRA    JFK    DL     
O66371                             A320                 ADSB   PR-OCB FOR    GRU    O6     
UT576                              B738                 ADSB   VQ-BQS KRR    VKO    UT     
B61208                             E190                 ASDI   N374JB IAD    JFK    B6     
VN54                               B789                 ADSB   VN-A862LHR    HAN    VN     
KE951                              B772                 ADSB   HL7598 ICN    DXB    KE     
SQ266                              B772                 ADSB   9V-SVI BNE    SIN    SQ     
SQ242                              B77W                 ADSB   9V-SWE SYD    SIN    SQ     
9I604                              AT76                 ADSB   VT-AIZ IXD    DEL    9I     
WN1572                             B737                 ASDI   N791SW IND    TPA    WN     
EW9530                             A320                 ADSB   D-AEWI DUS    ALC    EW     
AD5122                             A20N                 ESTI   PR-YRH FOR    CNF    AD     
U28452                             A319                 ADSB   G-EZBD VRN    LGW    U2     
NH1719                             B738                 ADSB   JA77AN KIX    CTS    NH     
NA138                              AT76                 ADSB   HZ-MHH HAS    URY    NA     
FR1535                             B738                 ADSB   EI-FIO LIS    FRA    FR     
UK736                              A320                 ADSB   VT-TTE ATQ    BOM    UK     
RS7677                             E75S                 ASDI   C-FEKJ BOS    YYZ    RS     
N4195                              B738                 ADSB   VP-BSP SVO    IKT    N4     
EXM58                              DA42                 MLAT   G-CTCB GLA    STN           
EDV3764                            CRJ2                 MLAT   N840AY HPN    DTW           
DY1754                             B738                 ADSB   LN-NGY EVE    LPA    DY     
8C7001                             B763                 OCEA   N399CM LAX    HNL    8C     
6E755                              A320                 ADSB   VT-IFN DEL    BOM    6E     
E501                               G12T                 ADSB   E-501                       
PRVSP                              PC12                 ADSB   PR-VSP                      
QF8                                A388                 ESTI   VH-OQD DFW    SYD    QF     
JJ4647                             A319                 ADSB   PR-MYB GYN    CGH    JJ     
MU5644                             A320                 ADSB   B-6399 HLH    TSN    MU     
JD5380                             A319                 ESTI   B-6211 SHE    XNN    JD     
RJ261                              B788                 ADSB   JY-BAH AMM    JFK    RJ     
T0916                              A332                 ESTI   N973AV GRU    LIM    T0     
MH150                              A333                 ESTI   9M-MTK KUL    JED    MH     
QR1370                             B77W                 ADSB   A7-BAW CPT    DOH    QR     
EW9360                             DH8D                 MLAT   D-ABQL DUS    GLA    EW     
KE671                              B748                 ESTI   HL7638 ICN    KUL    KE     
SQ236                              A359                 ADSB   9V-SMB BNE    SIN    SQ     
U22004                             A320                 ADSB   G-EZRJ VLC    LTN    U2     
SU2578                             A333                 ADSB   VQ-BQZ SVO    LHR    SU     
EW9558                             A320                 ADSB   D-AEWR DUS    TFS    EW     
N421TE                             C421                 ASDI   N421TE W75    KEVB          
AD5722                             AT76                 ADSB   PR-AQH CNF    GVR    AD     
MI965                              B738                 ADSB   9V-MGE SZX    SIN    MI     
G8241                              A20N                 ADSB   VT-WGJ BLR    PNQ    G8     
LH8265                             MD11                 ADSB   D-ALCD DSS    FRA    LH     
OOPRM                              C510                 ADSB   OO-PRM                      
EW9542                             A320                 ADSB   D-AEWV DUS    LPA    EW     
HV551                              B738                 ESTI   PH-HSG AMS    RMF    HV     
FR5945                             B738                 ADSB   EI-EMC AGP    BOH    FR     
9W233                              A333                 ADSB   VT-JWR AMS    DEL    9W     
VY8478                             A320                 ADSB   EC-MNZ BCN    OPO    VY     
VJ155                              A321                 ADSB   VN-A643HAN    SGN    VJ     
8Y709                              A320                 ADSB   RP-C7934MWX    KLO    8Y     
7G16                               A320                 ADSB   JA24MC UBJ    HND    7G     
JL751                              B788                 ESTI   JA842J NRT    HAN    JL     
REH56                              PC12                 ASDI          CEC    KCIC          
AA1110                             B738                 MLAT   N946AN ORD    PHX    AA     
RW4499                             E170                 MLAT   N136HQ LGA    CMH    RW     
DL1681                             MD88                 ASDI          MYR    ATL    DL     
US5665                             CRJ2                 MLAT   N251PS CLE    DCA    US     
                                   E195                 ADSB   PR-AYJ                      
WN1540                             B737                 ASDI          ALB    BWI    WN     
NH479                              B772                 ADSB   JA743A HND    OKA    NH     
UA82                               B772                 ADSB   N78001 EWR    DEL    UA     
UA623                              B738                 ADSB   N35271 BDL    ORD    UA     
LH452                              A346                 ADSB   D-AIHV MUC    LAX    LH     
WN24                               B737                 MLAT   N432WN PVD    TPA    WN     
MU207                              B77W                 ASDI   B-7343 PVG    YYZ    MU     
5X910                              A306                 ADSB   N152UP RFD    ONT    5X     
DE1456                             A321                 ADSB   D-AIAG DUS    FUE    DE     
JW105                              A320                 ESTI   JA07VA NRT    TPE    JW     
BR35                               B77W                 ASDI   B-16723YYZ    TPE    BR     
RW3451                             E170                 ADSB   N730YX PIT    EWR    RW     
BR51                               B77W                 ESTI   B-16719IAH    TPE    BR     
A36400                             A320                 ADSB   SX-DGK               A3     
TU745                              A319                 ADSB   TS-IMO FRA    TUN    TU     
G31211                             B738                 ADSB   PR-GXQ POA    CGH    G3     
AS886                                                   OCEA          LIH    SEA    AS     
LO433                              B38M                 ADSB   SP-LVA WAW    MAD    LO     
XQ180                              B738                 ADSB   TC-SEJ AYT    DUS    XQ     
BR11                               B77W                 OCEA   B-16706LAX    TPE    BR     
LJ61                               B738                 ADSB   HL7565 ICN    BKI    LJ     
LH719                              A346                 ESTI   D-AIHL ICN    MUC    LH     
LH598                              A333                 ADSB   D-AIKS FRA    JED    LH     
FIN8CA                             E190                 ESTI   OH-LKI BRU    HEL    AY     
JQ524                              A320                 ADSB   VH-JQG MEL    SYD    JQ     
ACA607                             E190                 ESTI   C-FHKI YHZ    YYZ    AC     
GA417                              A332                 ADSB   PK-GPO DPS    CGK    GA     
MU774                              A332                 ADSB   B-5930 CDG    KMG    MU     
AA144                                                   OCEA          HNL    LAX    AA     
5X320                              B763                 ADSB   N316UP SDF    MEX    5X     
QF556                              B738                 ADSB   VH-XZF SYD    BNE    QF     
CFHFS                              PA44                 ASDI   CFHFS  YFC    YFC           
AK143                              A320                 ADSB   9M-AJA SWA    KUL    AK     
DL2625                             B738                 ADSB   N385DN RIC    ATL    DL     
JT599                              B739                 ADSB   PK-LFF SUB    CGK    JT     
JQ917                              A320                 ADSB   VH-VFJ TSV    MEL    JQ     
G76210                             CRJ7                 ASDI          RDU    EWR    G7     
AV14                               A333                 ADSB   EC-MII CLO    MAD    AV     
U6710                              A320                 ADSB   VQ-BCI CDG    SVX    U6     
OO2988                             CRJ7                 MLAT   N756SK TYS    DFW    OO     
WN2056                             B737                 ASDI          ATL    FLL    WN     
AA2084                             A321                 ASDI   N180US LAS    CLT    AA     
BLOCKED                            B190                 ASDI   BLOCKEDYHZ    YWK    PB     
EK121                              B77W                 ADSB   A6-EBP DXB    IST    EK     
U28468                             A320                 ADSB   G-EZOI LGW    GVA    U2     
AI541                              A321                 ESTI   VT-PPW HYD    DEL    AI     
SU206                              B77W                 ESTI   VQ-BQB SVO    PVG    SU     
QF584                              B738                 ADSB   VH-VZD PER    ADL    QF     
TK7317                             B738                 ADSB   TC-SCG GNY    SAW    TK     
I23709                             A320                 ESTI   EC-LLE NAP    MAD    I2     
FR4897                             B738                 ADSB   EI-EMP BLQ    TFS    FR     
UKP037                             EC35                 MLAT   G-CPAS                      
EDV3990                            CRJ9                 ADSB   N297PQ GSP    LGA           
SK1755                             CRJ9                 ADSB   EI-FPA CPH    POZ    SK     
CM492                              B738                 ESTI   HP-1827CMPLIM    PTY    CM     
EK201                              A388                 ADSB   A6-EEM DXB    JFK    EK     
TP1865                             A319                 ADSB   CS-TTI LIS    PDL    TP     
MQ3452                             E145                 ASDI   N646AE GNV    MIA    MQ     
FV6644                             A319                 ADSB   VQ-BAQ DUS    LED    FV     
TK1980                             A333                 ADSB   TC-JOJ LHR    IST    TK     
N3477M                                                  ASDI   N3477M                      
WS585                              B737                 ADSB   C-GWSO YHM    YYC    WS     
N99ZD                              SR22                 ASDI   N99ZD                       
FX1748                             B763                 ASDI   N122FE IND    PHX    FX     
WE276                              A320                 ADSB   HS-TXL HKT    BKK    WE     
KL705                              B772                 ESTI   PH-BQE AMS    GIG    KL     
HBSCZ                              DV20                 MLAT   HB-SCZ                      
TP437                              A319                 ADSB   CS-TTQ ORY    LIS    TP     
BA434                              A320                 ADSB   G-EUYV LHR    AMS    BA     
EDV9204                            CRJ9                 ASDI          DTW    IND           
LY396                              B739                 ADSB   4X-EHE MAD    TLV    LY     
QR60                               A359                 ESTI   A7-AMB MUC    DOH    QR     
MU568                              A332                 ADSB   B-5931 SIN    PVG    MU     
WN6588                             B737                 ASDI          FNT    MDW    WN     
TK7219                             B738                 ADSB   TC-JFJ EZS    SAW    TK     
UA1614                             B739                 ADSB   N37419 LAX    IAH    UA     
PG286                              A320                 ADSB   HS-PGU HKT    BKK    PG     
AA67                               B772                 OCEA   N795AN BCN    JFK    AA     
WG518                              BE99                 ASDI   N195WA HYA    MHT    WG     
S24432                             B737                 ADSB   VT-SJA IXE    BOM    S2     
HD88                               B763                 ADSB   JA01HD AKJ    HND    HD     
AA219                              B738                 ADSB   N984NN LAX    ORD    AA     
DY7202                             B788                 ADSB   LN-LNC BKK    OSL    DY     
ZW4197                             CRJ2                 ADSB   N461AW CAE    PHL    ZW     
RJ620                              A320                 ADSB   JY-AYU AMM    AUH    RJ     
WILDC64                            AS3B                 MLAT   S-444                       
MAFAJ                              F900                 ADSB   M-AFAJ                      
                                   E195                 ADSB   PR-AXY                      
OY272                              B763                 OCEA   N378AX OKO    SEA    OY     
EDV3844                            CRJ9                 ASDI   N605LR DCA    JFK           
IW1894                             AT76                 ADSB   PK-WHG SOC    BDJ    IW     
9C8580                             A320                 ADSB   B-8370 BKK    PVG    9C     
EW2018                             A319                 ADSB   D-AKNL STR    TXL    EW     
OO4554                             CRJ9                 MLAT   N812SK MDT    DTW    OO     
N466SG                             C550                 ASDI   N466SG KFXE   PGD           
FR2613                             B738                 ADSB   EI-FZZ SDR    STN    FR     
W8920                              B752                 ADSB   C-FKCJ CVG    YYC    W8     
SN3837                             A320                 ADSB   OO-TCQ BRU    BVC    SN     
RW4513                             E170                 ADSB   N442YX ATL    DCA    RW     
AX4361                             E145                 MLAT   N610AE JFK    RDU    AX     
MU5430                             A320                 ADSB   B-6370 CKG    SHA    MU     
TK1808                             B738                 ADSB   TC-JVP LYS    IST    TK     
DL468                              A333                 ADSB   N830NW JFK    TLV    DL     
JQ570                              A320                 ADSB   VH-VGI MEL    BNE    JQ     
LS812                              B738                 ADSB   G-DRTB GVA    MAN    LS     
TR9                                B789                 ADSB   9V-OJA PER    SIN    TR     
EDV3640                            CRJ2                 ASDI   N820AY TYS    DTW           
FV6112                             B738                 ADSB   VQ-BSR KRR    VKO    FV     
PQ88                               A320                 ADSB   RP-C8966MNL    MFM    PQ     
UA2                                B789                 OCEA   N35953 SIN    SFO    UA     
BL807                              A320                 ADSB   VN-A198HAN    SGN    BL     
WY405                              B738                 ADSB   A4O-BV MCT    CAI    WY     
G31520                             B738                 ADSB   PR-GXM GRU    FOR    G3     
MU785                              A332                 ESTI   B-5942 XIY    PRG    MU     
QR755                              B77W                 ADSB   A7-BAN DOH    ATL    QR     
A3617                              A320                 ADSB   SX-DNE AMS    ATH    A3     
MQ3719                             E145                 MLAT   N643AE LGA    DTW    MQ     
CZ6538                             A320                 ESTI   B-1651 CTU    XUZ    CZ     
NK757                              A320                 ADSB   N609NK EWR    LAS    NK     
AER42                              B190                 ASDI          ANC    CDV           
N8365Q                             R44                  ADSB   N8365Q                      
GBRBP                              C152                 MLAT   G-BRBP                      
U21980                             A319                 ADSB   G-EZGD VIE    MAN    U2     
DL1382                                                  OCEA          LIH    LAX    DL     
AD5282                             A20N                 ADSB   PR-YRF VCP    MCZ    AD     
WWW211                             B736                 ASDI   N273RH LAS    XSD           
U28726                             A320                 ADSB   G-EZTD MRS    LGW    U2     
TK392                              B738                 ADSB   TC-JGV IST    BUS    TK     
N805XA                             B738                 ADSB   N805XA                      
G8585                              A20N                 ADSB   VT-WGI IXR    BOM    G8     
OO4920                             CRJ2                 ASDI          DHN    ATL    OO     
DL312                              B738                 ASDI          STI    JFK    DL     
DL41                               B77L                 ESTI   N710DN LAX    SYD    DL     
S7882                              A321                 ADSB   VQ-BQJ OGZ    DME    S7     
U21674                             A320                 ADSB   G-EZOG NTE    NCE    U2     
WN1789                             B737                 ADSB   N7883A BWI    ATL    WN     
VIR43E                             B744                 ESTI   G-VGAL LGW    LAS    VS     
NZ24                               B772                 ESTI   ZK-OKB AKL    YVR    NZ     
FX1544                             A306                 ADSB   N687FE MEM    FAR    FX     
FR863                              B738                 ADSB   EI-EMH RZE    DUB    FR     
AA2606                             B738                 ADSB   N912NN BDL    DFW    AA     
BLOCKED                            S76                  ASDI   BLOCKED                     
WN760                              B737                 ASDI          ATL    HOU    WN     
CA931                              B77W                 ADSB   B-2039 PEK    FRA    CA     
EDV3691                            CRJ9                 ASDI          SYR    LGA           
AX4723                             E145                 ASDI          CRW    IAD    AX     
WN531                              B737                 ADSB   N7855A PIT    BWI    WN     
JQ35                               B788                 ESTI   VH-VKF MEL    DPS    JQ     
AF1738                             A321                 ADSB   F-GTAH CDG    VIE    AF     
B6811                              A320                 ADSB   N653JB EWR    RSW    B6     
DY7171                             B789                 ESTI   G-CKNY LGW    DEN    DY     
GBASJ                              P28A                 MLAT   G-BASJ                      
US4874                             E145                 ASDI          ITH    PHL    US     
UJC340                             J328                 MLAT   N406FJ LUK    CLT           
KC242                              A320                 ADSB   P4-KBF DEL    TSE    KC     
JL10                               B77W                 ADSB   JA733J NRT    ORD    JL     
3V10                               B744                 ADSB   OE-IFB LGG    JFK    3V     
FR5003                             B738                 ADSB   EI-FRF NAP    BLQ    FR     
AI764                              A20N                 ADSB   VT-EXI DEL    CCU    AI     
GB3429                             B762                 ADSB   N749AX ONT    CVG    GB     
FR7149                             B738                 ADSB   EI-FOL VNO    DUB    FR     
AV89                               B788                 ADSB   N792AV LAX    BOG    AV     
ETD36X                             A320                 ESTI   A6-EIT AUH    CCU    EY     
DL166                              B763                 OCEA   N1612T NRT    SEA    DL     
EY292                              A320                 ESTI   A6-EIX AUH    KTM    EY     
KU118                              B77W                 ADSB   9K-AOI JFK    KWI    KU     
C54992                             E45X                 ASDI          ALB    EWR    C5     
QR725                              B77W                 ESTI   A7-BAI DOH    ORD    QR     
J2254                              A320                 ADSB   4K-AZ78NAJ    GYD    J2     
UL503                              A333                 ESTI   4R-ALR CMB    LHR    UL     
5J570                              A320                 ADSB   RP-C3274CEB    MNL    5J     
G32001                             B737                 ADSB   PR-VBO PLU    IZA    G3     
WS557                              B737                 ADSB   C-FWSI YKF    YYC    WS     
UA183                              B738                 ESTI          GUM    MNL    UA     
AC615                                                   ASDI          YHZ    YYZ    AC     
BLOCKED                            GL5T                 ADSB   BLOCKEDYUL    BRN           
N43TA                              BE20                 ADSB   N43TA                       
US5095                             CRJ2                 MLAT   N228PS CAK    LGA    US     
G76226                             CRJ9                 MLAT   N185GJ RDU    DTW    G7     
EDV3416                            CRJ9                 ASDI          PIT    BOS           
UA203                              B739                 ADSB   N69829 BOS    ORD    UA     
MF860                              B738                 ADSB   B-1970 TPE    JJN    MF     
WN1504                             B737                 MLAT   N567WN RDU    BWI    WN     
F91923                             A320                 ADSB   N216FR IAD    AUS    F9     
KE685                              A333                 ADSB   HL7524 ICN    SGN    KE     
MQ3300                             E145                 ASDI          LAW    DFW    MQ     
N1122Z                             BE36                 ASDI   N1122Z WWD    BED           
KL1795                             E190                 ADSB   PH-EZA AMS    MUC    KL     
YV6137                             E170                 ADSB   N86322 PHL    IAD    YV     
BRS01                              A319                 ADSB   2101                        
N469SR                             SR22                 ADSB   N469SR KHAO   LAN           
7C1107                             B738                 ADSB   HL7780 NRT    ICN    7C     
GF221                              A320                 ADSB   A9C-AE BAH    KWI    GF     
PR897                              A321                 ADSB   RP-C9915TPE    MNL    PR     
SU1367                             A320                 ESTI   VP-BCB STW    SVO    SU     
MI519                              B738                 ESTI   9V-MGP RGN    SIN    MI     
4O2549                             A320                 ESTI   XA-JAV CTM    MEX    4O     
DY1602                             B738                 ADSB   LN-NGA OSL    GVA    DY     
3E2801                             C208                 ASDI          IWD    ORD    3E     
HU7961                             B788                 ASDI   B-2739 PVG    BOS    HU     
                                   CRJ2                 MLAT   N936EV                      
FD3187                             A320                 ADSB   HS-ABY NST    DMK    FD     
U26026                             A319                 ADSB   G-EZII BCN    BRS    U2     
AK5120                             A320                 ESTI   9M-AFW KUL    BKI    AK     
O68501                             A332                 ESTI   PR-OCX JFK    GRU    O6     
UB301                              AT76                 ADSB   XY-AMK RGN    TVY    UB     
                                   E195                 ADSB   PR-AYF                      
CZ351                              A320                 ADSB   B-9929 CAN    SIN    CZ     
AK279                              A320                 ADSB   9M-AFV BWN    KUL    AK     
VS24                               B789                 ESTI   G-VNEW LAX    LHR    VS     
RW4744                             E170                 MLAT   N119HQ LGA    ATL    RW     
EI3672                             AT76                 ADSB   EI-FAT SNN    EDI    RE     
EK213                              B77L                 ASDI   A6-EWD DXB    FLL    EK     
3U8968                             A320                 ADSB   B-1660 DLC    CKG    3U     
SU18                               A320                 ADSB   VP-BLL SVO    LED    SU     
D85571                             B738                 ADSB   EI-FHW CPH    BCN    D8     
FIN24B                             A321                 ADSB   OH-LZO MUC    HEL    AY     
EI593                              A320                 ADSB   EI-DEF MAD    DUB    EI     
EV601                              B190                 ASDI          YQY    YDF    EV     
PC1710                             B738                 ADSB   TC-AJP ESB    AMM    PC     
DL479                              B764                 ADSB   N843MH JFK    GIG    DL     
SPSIM                              R44                  ADSB   SP-SIM                      
9W127                              A333                 ADSB   VT-JWS CDG    MAA    9W     
BLOCKED                            BE9L                 ASDI   BLOCKEDLIH    HNL           
WN582                              B738                 ADSB   N8677A CMH    LAS    WN     
SV1514                             A320                 ADSB   HZ-AS44TUI    DMM    SV     
DL582                              B77L                 ESTI   N703DN PVG    DTW    DL     
DJ754                              B738                 ADSB   VH-VUT OOL    MEL    DJ     
SV124                              B789                 ADSB   HZ-ARE MAN    JED    SV     
WY453                              E170                 ESTI   A4O-EA MCT    MHD    WY     
LH408                              A333                 ADSB   D-AIKL DUS    EWR    LH     
9S597                              B734                 MLAT   N309GT CVG    SLC    9S     
AA171                              A321                 ADSB   N117AN JFK    LAX    AA     
3O492                              A320                 ADSB   CN-NMI NAP    CMN    3O     
WN1597                             B737                 MLAT   N784SW PHL    MDW    WN     
U27084                             A319                 ADSB   G-EZAW LIS    LPL    U2     
LQ94                               B738                 ADSB   JA811X OIT    HND    LQ     
YU351                              B763                 ADSB   CS-TKR LIS    OXB    YU     
A3681                              A320                 ADSB   SX-DGB BCN    ATH    A3     
TP1025                             A319                 ADSB   CS-TTR MAD    LIS    TP     
CSA6KG                             B739                 ADSB   OK-TSI PRG    ARN    OK     
PS335                              B738                 ADSB   UR-PSC KBP    VCE    PS     
                                   YK42                 ADSB   RA-42340                     
QF62                               A333                 ESTI   VH-QPF NRT    BNE    QF     
KE931                              B748                 ESTI   HL7637 ICN    FCO    KE     
CX369                              A333                 ADSB   B-HLN  PVG    HKG    CX     
AK5303                             A320                 ADSB   9M-AQU BKI    JHB    AK     
EV5601                             CRJ7                 ASDI   N748EV GRR    LGA    EV     
ID7509                             A320                 ADSB   PK-LAH HLP    SUB    ID     
5Y583                              B762                 ASDI   N650GT CVG    MIA    5Y     
GF172                              A321                 ADSB   A9C-CE JED    BAH    GF     
EW2460                             A319                 ADSB   D-ASTX STR    LHR    EW     
DL2514                             A320                 ADSB   N332NW FSD    MSP    DL     
VPCEJ                              GLEX                 ADSB   VP-CEJ                      
5Y3050                             B763                 ADSB   N1049A KSCK   CVG    5Y     
EV4148                             E145                 ASDI          TVC    ORD    EV     
MQ3593                             E170                 ADSB   N254NN GRR    ORD    MQ     
PC301                              B738                 ADSB   TC-ARP SAW    PRG    PC     
NY122                              DH8D                 ADSB   TF-FXB RKV    AEY    NY     
U23034                             A319                 ADSB   G-EZDJ KEF    STN    U2     
FM850                              B737                 ADSB   B-5261 HKG    ZHA    FM     
A3865                              A320                 ADSB   SX-DVT PRG    ATH    A3     
D86071                             B738                 ADSB   EI-FHV OSL    MAD    D8     
LX1226                             A319                 ADSB   HB-IPT ZRH    GOT    LX     
WY116                              B788                 ESTI   A4O-SB FRA    MCT    WY     
9W369                              B738                 ESTI   VT-JBJ DEL    PNQ    9W     
5X922                              B763                 ADSB   N349UP SDF    SAN    5X     
B61426                             E190                 ASDI   N353JB BWI    BOS    B6     
BR809                              A321                 ADSB   B-16201TPE    HKG    BR     
HBTDB                              C172                 ADSB   HB-TDB                      
SQ25                               A388                 ADSB   9V-SKN FRA    SIN    SQ     
ME210                              A332                 ADSB   OD-MEE CDG    BEY    ME     
6E611                              A320                 ADSB   VT-IAY HYD    VTZ    6E     
NZ5                                B77W                 ESTI   ZK-OKQ LAX    AKL    NZ     
JAI652T                            AT76                 ADSB   VT-JCX               9W     
AI309                              B788                 ADSB   VT-ANH MEL    DEL    AI     
JJ3169                             A321                 ADSB   PT-XPG GRU    IGU    JJ     
MH743                              B738                 ADSB   9M-MXB RGN    KUL    MH     
2P2988                             A320                 ADSB   RP-C8398TAC    MNL    2P     
BA256                              B772                 ADSB   G-YMMK DEL    LHR    BA     
K4248                              B744                 ADSB   N740CK DEL    LEJ    K4     
AY669                              A320                 ADSB   OH-LXD HEL    CPH    AY     
WN1625                             B737                 ADSB   N250WN PIT    MCO    WN     
YV5791                             CRJ9                 MLAT   N931LR HOU    DFW    YV     
SU2132                             A320                 ADSB   VP-BLH SVO    IST    SU     
N966SW                             C560                 MLAT   N966SW K5C1   KFCM          
UA846                              B763                 ASDI   N652UA SCL    IAH    UA     
AA1512                             B738                 ADSB   N868NN PHX    DCA    AA     
UX9047                             B738                 ADSB   EC-KCG TFN    MAD    UX     
                                   A319                 ADSB   PR-MAM                      
PH4N3                              ZZZZ                 ADSB   PH-4N3               PH     
CA968                              A332                 ADSB   B-6541 MXP    PVG    CA     
SQ406                              A388                 ESTI   9V-SKK SIN    DEL    SQ     
TG417                              B773                 ADSB   HS-TKC BKK    KUL    TG     
CFG7LE                             B753                 ADSB   G-JMOG FRA    FUE    DE     
5Y8665                             B744                 ADSB   N497MC HHN    KSUU   5Y     
UO849                              A321                 ADSB   B-LCO  NRT    HKG    UO     
NK301                              A321                 ADSB   N672NK BWI    FLL    NK     
UA2112                             B738                 MLAT   N26210 SEA    IAH    UA     
JT354                              B739                 ADSB   PK-LOF CGK    PDG    JT     
AT276                              B738                 ADSB   CN-RGN CMN    BEY    AT     
NH389                              B738                 ADSB   JA71AN HND    YGJ    NH     
FY3516                             AT75                 ADSB   9M-FYJ SIN    SZB    FY     
U21863                             A319                 ADSB   OE-LKH MAN    VCE    U2     
S767                               A319                 ADSB   VP-BTS DME    KGD    S7     
VPCPT                              GLEX                 ADSB   VP-CPT                      
KUG040                             A319                 ADSB   9K-GEA                      
SQ609                              A333                 ESTI   9V-STB ICN    SIN    SQ     
SQ7292                             B744                 ADSB   9V-SFN SYD    AKL    SQ     
OQ2390                             A320                 ADSB   B-6761 HGH    CKG    OQ     
N314AB                             BE9L                 ASDI   N314AB KFCI   ILM           
SU2307                             B738                 ADSB   VP-BMO FRA    SVO    SU     
WCF                                B06                  ADSB   VH-WCF                      
BA791                              A321                 ADSB   G-EUXI GOT    LHR    BA     
CZ3164                             A320                 ADSB   B-6293 PEK    CSX    CZ     
MRA700                             C208                 ASDI   N1116N RDU    EWN           
JQ611                              A320                 ADSB   VH-VFN SYD    AVV    JQ     
G76228                             CRJ7                 ADSB   N659CA RDU    DCA    G7     
ID6346                             B738                 ADSB   PK-LBK CGK    SRG    ID     
JQ712                              A320                 ADSB   VH-VGA HBA    MEL    JQ     
BLOCKED                            GLF5                 ADSB   BLOCKEDKFTY   TEB           
TK1467                             B738                 ADSB   TC-JVS IST    BCN    TK     
US4950                             E145                 MLAT   N608LM GSP    PHL    US     
WY843                              A332                 ESTI   A4O-DF MCT    MNL    WY     
WG122                              B738                 ADSB   C-FJAU YYY    YUL    WG     
AR1289                             B738                 ADSB   LV-GKS SCL    AEP    AR     
BA2216                             E190                 MLAT   G-LCYM LCY    EDI    CJ     
MH780                              B738                 ADSB   9M-MXN KUL    BKK    MH     
CA166                              A333                 ADSB   B-8579 MEL    PEK    CA     
FX1414                             B763                 ADSB   N123FE MEM    TUS    FX     
N668JS                             GLEX                 ADSB   N668JS                      
ZH9370                             B738                 ADSB   B-7083 SHE    WUH    ZH     
JH315                              E170                 ADSB   JA11FJ NKM    FUK    JH     
RSD077                             IL96                 ADSB   RA-96019                     
TK5122                             A333                 ESTI   TC-LOC IST    JED    TK     
5X9810                             B752                 ASDI   N438UP BOS    PHL    5X     
BLOCKED                            GLEX                 ADSB   BLOCKED                     
CZ6148                             A320                 ADSB   B-8357 HRB    SYX    CZ     
GB2267                             B763                 ADSB   N364CM MIA    SJU    GB     
MS915                              B738                 ADSB   SU-GED AUH    CAI    MS     
HA8                                                     OCEA          HNL    LAS    HA     
GBZLC                              N/A                  ADSB   N/A                         
QF776                              A332                 ADSB   VH-EBO PER    MEL    QF     
DJ722                              F100                 ADSB   VH-FZO PER    ADL    DJ     
EW2261                             B738                 ADSB   D-ABBD LPA    STR    EW     
                                   E195                 ADSB   PR-AXE                      
LU382                              A320                 ESTI   CC-BFA SCL    ARI    LU     
PC1181                             B738                 ADSB   TC-CPP SAW    STN    PC     
TT539                              A320                 ADSB   VH-VND BNE    MEL    TT     
FR8804                             B738                 ADSB   EI-ENH CGN    AGP    FR     
PRWSG                              A139                 ADSB   PR-WSG                      
JL745                              B763                 ESTI   JA606J NRT    MNL    JL     
PRMHM4                             A320                 ADSB   PR-MHM               JJ     
FD412                              A320                 ADSB   HS-CBA DMK    NGB    FD     
EY100                              A388                 ADSB   A6-APG JFK    AUH    EY     
VN474                              A321                 ADSB   VN-A353CXR    SHE    VN     
QY6824                             B752                 ADSB   D-ALEP LEJ    MAD    QY     
IB3203                             A319                 ADSB   EC-KBX BRU    MAD    IB     
QQ815                              F100                 ADSB   VH-FKA LER    PER    QQ     
VS75                               B744                 ADSB   G-VLIP MAN    MCO    VS     
G31830                             B738                 ADSB   PR-GXT SSA    FOR    G3     
5X435                              B763                 ESTI   N323UP BOG    MIA    5X     
CA861                              A332                 ADSB   B-6093 PEK    GVA    CA     
KE683                              A333                 ADSB   HL8002 ICN    SGN    KE     
                                   C56X                 ADSB   PT-MSK                      
                                   E50P                 ADSB   PR-FIL                      
FX19                               B77L                 ADSB   N857FD MEM    ANC    FX     
HV5749                             B738                 ADSB   PH-HXK AMS    CMN    HV     
EW7068                             B738                 ADSB   D-ABMV HAM    DUS    EW     
6E706                              A320                 ADSB   VT-IED MAA    TRV    6E     
A3809                              A320                 ADSB   SX-DGZ STR    ATH    A3     
TK1662                             A321                 ADSB   TC-JRY HAM    IST    TK     
                                   PA34                 ADSB   PR-BFA                      
AK5740                             A320                 ADSB   9M-AJW KUL    TWU    AK     
6E638                              A320                 ADSB   VT-IHC IXC    BLR    6E     
AC691                              E190                 ASDI   C-FHNP YYT    YYZ    AC     
IFL531                             FA20                 ASDI          KPSK   KPTK          
3K131                              A320                 ADSB   9V-JSP SIN    PER    3K     
ZH9019                             B738                 ADSB   B-1973 XIY    SZX    ZH     
MF8010                             B738                 ESTI   B-5383 REP    XMN    MF     
DEGMM                              C172                 ADSB   D-EGMM                      
VN836                              A321                 ADSB   VN-A347REP    HAN    VN     
SV179                              A320                 ADSB   HZ-ASA RUH    FRA    SV     
FR1833                             B738                 ADSB   EI-EKS NAP    STN    FR     
GA858                              B77W                 ADSB   PK-GII DPS    PVG    GA     
G32061                             B737                 ADSB   PR-VBI BSB    SDU    G3     
U2403                              A319                 ADSB   G-EZFX BRS    GLA    U2     
VN680                              A321                 ADSB   VN-A367KUL    HAN    VN     
TP1908                             A320                 ADSB   CS-TQD FAO    LIS    TP     
CA911                              A333                 ESTI   B-5948 PEK    ARN    CA     
ANA980D                            B763                 ADSB   JA616A               NH     
AF1258                             A319                 ADSB   F-GRXD CDG    RBA    AF     
MF817                              B738                 ADSB   B-5750 JJN    MNL    MF     
M6435                              B763                 ESTI   N316CM LCK    SJU    M6     
FR8542                             B738                 ADSB   EI-EBY STN    SXF    FR     
WN503                              B737                 ASDI          ATL    TPA    WN     
MU5179                             A320                 ADSB   B-6798 NGB    PEK    MU     
QK282                              DH8A                 ASDI          YTS    YYZ    QK     
OS76                               B772                 ADSB   OE-LPE PVG    VIE    OS     
6E5097                             A320                 ADSB   VT-IEC BOM    DEL    6E     
RU356                              B744                 ADSB   VQ-BHE HAN    SVO    RU     
BA18                               B788                 ADSB   G-ZBJG ICN    LHR    BA     
MMNDG                              GLF5                 ADSB   M-MNDG                      
X32142                             B738                 ADSB   D-ATUZ FRA    TFS    X3     
A81088                             B190                 ASDI          LAN    ESC    A8     
A3611                              A321                 ADSB   SX-DVP CDG    ATH    A3     
PK367                              A320                 ADSB   AP-BLV ISB    KHI    PK     
JT247                              B739                 ADSB   PK-LPI BTH    PLM    JT     
KL1182                             E170                 ADSB   PH-EXH LPI    AMS    KL     
EV5554                             CRJ7                 MLAT   N741EV LGA    CLT    EV     
JL780                              B772                 ADSB   JA711J NRT    HNL    JL     
OS784                              A319                 ADSB   OE-LDE OTP    VIE    OS     
NK267                              A319                 ADSB   N524NK PHL    LAX    NK     
                                   B738                 ADSB   B-1568                      
IA235                              A320                 ADSB   YI-ARD BGW    FRA    IA     
TK7084                             B738                 ADSB   TC-SBI ESB    VAN    TK     
WG614                              B738                 ADSB   C-FJUB YUL    CMW    WG     
EY32                               B77W                 ADSB   A6-ETK CDG    AUH    EY     
UA879                              B772                 ESTI   N76010 LHR    IAH    UA     
AR1500                             B738                 ADSB   LV-FRQ EZE    COR    AR     
KL1316                             E75L                 ADSB   PH-EXN BOD    AMS    KL     
UA858                              B772                 OCEA   N228UA PVG    SFO    UA     
FR4067                             B738                 ADSB   EI-GDC TFS    SXF    FR     
CI135                              A333                 ADSB   B-18353CTS    KHH    CI     
IW1754                             AT75                 ADSB   PK-WGF               IW     
N404NA                             GL5T                 ADSB   N404NA                      
SU2514                             A320                 ADSB   VP-BZP SVO    BCN    SU     
AA2230                             B752                 ADSB   N194AA JFK    MIA    AA     
OPT361                             E55P                 ADSB   N361FX TEB    IAD           
BR660                              B77L                 ESTI   B-16781ANC    ORD    BR     
5Y8594                             B744                 ADSB   N445MC               5Y     
TK1982                             B738                 ADSB   TC-JVN LGW    IST    TK     
TK3                                A333                 ESTI   TC-JOF IST    JFK    TK     
LS1507                             B738                 ADSB   G-JZHN STN    LPA    LS     
3K765                              A320                 ADSB   9V-JSF SIN    MNL    3K     
BA849                              A319                 ADSB   G-EUPM ZAG    LHR    BA     
LKN231                             AT76                 ADSB   PK-NYT               IN     
PR658                              A333                 ESTI   RP-C8781MNL    DXB    PR     
LH1382                             CRJ9                 ADSB   D-ACKD FRA    BZG    LH     
QY6717                             A306                 ADSB   D-AEAF LHR    FRA    QY     
DY1876                             B738                 ADSB   LN-NGP OSL    MXP    DY     
                                   E190                 ADSB   PR-AZG                      
UA601                              B739                 ADSB   N66808 PHL    ORD    UA     
EV5464                             CRJ7                 ASDI          BOS    ORF    EV     
AY99                               A359                 ESTI   OH-LWF HEL    HKG    AY     
RU421                              B748                 ADSB   VQ-BGZ SVO    PEK    RU     
CA4535                             A321                 ADSB   B-8583 CTU    PVG    CA     
US5394                             CRJ7                 ASDI          DTW    DCA    US     
UA954                              B788                 ESTI   N26902 SFO    TLV    UA     
                                   GRND                 ADSB                               
GF506                              A320                 ADSB   A9C-AH BAH    DXB    GF     
FR130                              B737                 ADSB   EI-SEV CGN    OPO    FR     
RS7561                             E75S                 ASDI   C-FEJD YUL    YYZ    RS     
NH12                               B773                 OCEA   JA735A NRT    ORD    NH     
BR75                               B77W                 ESTI   B-16715BKK    AMS    BR     
YN920                              DH8A                 ASDI          YVO    YUL    YN     
UA383                                                   OCEA          HNL    DEN    UA     
DP511                              B738                 ADSB   VQ-BWH               DP     
LP2428                             B763                 ADSB   CC-CXK EZE    LIM    LP     
SK4675                             B738                 ADSB   LN-RRJ OSL    ALC    SK     
GSHWK                              C172                 MLAT   G-SHWK                      
FR2536                             B738                 ADSB   EI-GDD LBA    LPA    FR     
SV207                              A320                 ADSB   HZ-ASG RUH    FCO    SV     
KL947                              E75L                 ADSB   PH-EXP AMS    BHD    KL     
EV3992                             E145                 MLAT   N14902 CLE    EWR    EV     
BLOCKED                            C56X                 ADSB   BLOCKEDCAK    RDG           
BT652                              BCS3                 ADSB   YL-CSF LGW    RIX    BT     
SN2094                             A320                 ADSB   OO-SNF LHR    BRU    SN     
6E676                              A320                 ADSB   VT-IDS TRV    BLR    6E     
NZ1                                B77W                 OCEA   ZK-OKN LAX    AKL    NZ     
MYSAI                              GL5T                 ADSB   M-YSAI                      
CX257                              B77W                 ADSB   B-KQO  HKG    LHR    CX     
ST1082                             A319                 ADSB   D-ASTA NUE    RMF    ST     
IT203                              A320                 ESTI   B-50015NRT    TPE    IT     
TG916                              A359                 ADSB   HS-THG BKK    LHR    TG     
EY130                              B789                 ADSB   A6-BLA IAD    AUH    EY     
NH886                              B788                 ESTI   JA807A KUL    HND    NH     
BR157                              A321                 ESTI   B-16213KMQ    TPE    BR     
5X9821                             B752                 ASDI          LIT    MEM    5X     
6E6965                             A320                 ADSB   VT-IDZ CCU    BLR    6E     
AY1572                             A321                 ADSB   OH-LZR CDG    HEL    AY     
B61010                             A321                 OCEA   N956JT SDQ    JFK    B6     
RW6073                             E170                 ADSB   N211JQ BOS    LGA    RW     
SA8111                             E190                 ADSB   ZS-YAC BUQ    JNB    SA     
LX411                              BCS3                 ADSB   HB-JCG DUB    GVA    LX     
FX1742                             DC10                 ADSB   N372FE IND    LAX    FX     
PC1003                             A20N                 ADSB   TC-NBD SAW    DUS    PC     
G76261                             CRJ7                 MLAT   N340CA RDU    BOS    G7     
QF11                               A388                 ESTI   VH-OQG SYD    LAX    QF     
VUAVA                              B737                 ADSB   K5012                       
AZ1492                             A319                 ADSB   EI-IMX VRN    FCO    AZ     
RO362                              B738                 ADSB   YR-BGJ AMS    OTP    RO     
KE554                              B77L                 ADSB   HL8045 KIX    ICN    KE     
FM9311                             A333                 ADSB   B-6096 SHA    CAN    FM     
AK349                              A320                 ADSB   9M-AJP JOG    KUL    AK     
QR240                              B77W                 ADSB   A7-BEB IST    DOH    QR     
FU6638                             B738                 ADSB   B-1350 XMN    TVS    FU     
CGTIM                              SW3                  ASDI   CGTIM  YKF    YTS           
ET502                              B788                 ADSB   ET-AOT DUB    YYZ    ET     
AC33                               B77L                 ESTI   C-FIUJ YVR    SYD    AC     
N106CA                             C402                 ASDI   N106CA                      
NK605                              A321                 ADSB   N657NK DTW    RSW    NK     
TP569                              A319                 ADSB   CS-TTM HAM    LIS    TP     
AT467                              AT76                 ADSB   CN-COF OZZ    CMN    AT     
EW6841                             A320                 ADSB   OE-IEU DUS    PMI    EW     
TN102                              A343                 ESTI   F-OSEA PPT    LAX    TN     
U6890                              A321                 ADSB   VQ-BOZ TLV    ZIA    U6     
FX1885                             DC10                 ADSB   N315FE OAK    SEA    FX     
OO4969                             CRJ2                 ASDI          FWA    ATL    OO     
BA800                              A320                 ADSB   G-EUUT LHR    KEF    BA     
BR17                               B77W                 OCEA   B-16740SFO    TPE    BR     
EK507                              B77W                 ESTI   A6-EGP BOM    DXB    EK     
BLOCKED                            GLEX                 ASDI   BLOCKEDNRT    YYC           
QF637                              B738                 ADSB   VH-VYD BNE    MEL    QF     
AF22                               B77W                 ESTI   F-GSQU CDG    JFK    AF     
SU2337                             A321                 ADSB   VP-BKQ STR    SVO    SU     
AA276                              A321                 ADSB   N112AN SFO    JFK    AA     
CA196                              A333                 ADSB   B-6512 TPE    PVG    CA     
                                                        ADSB                               
CA1641                             B738                 ADSB   B-1526 TSN    FOC    CA     
                                   DH8D                 ADSB   C-GIJZ                      
JJ8026                             B763                 ADSB   PT-MSX GRU    SCL    JJ     
TK2746                             B738                 ADSB   TC-JGA IST    VAN    TK     
AA73                               B789                 ESTI   N823AN LAX    SYD    AA     
CX889                              B77W                 ASDI   B-KPL  YVR    HKG    CX     
WG8464                             C208                 ASDI          PIT    SCE    WG     
OZ367                              A321                 ADSB   HL8059 ICN    PVG    OZ     
XQ161                              B738                 ADSB   TC-SOA TXL    AYT    XQ     
EI433                              A320                 ADSB   EI-EDS LIN    DUB    EI     
BA1                                A318                 ADSB   G-EUNA SNN    JFK    BA     
U28681                             A20N                 ADSB   G-UZHB LGW    ACE    U2     
MU581                              A332                 OCEA   B-8226 PVG    YVR    MU     
DY4277                             B738                 ADSB   LN-NHE ARN    LIS    DY     
MK647                              A332                 ESTI   3B-NBM SIN    MRU    MK     
CZ6920                             B738                 ESTI   B-1953 HGH    URC    CZ     
CA1228                             A320                 ADSB   B-6828 INC    PEK    CA     
                                   A319                 ADSB   B-6206                      
AA2165                             E190                 ADSB   N950UW BOS    LGA    AA     
LX1628                             E190                 ADSB   HB-JVM ZRH    MXP    LX     
FX1499                             MD11                 ADSB   N602FE MEM    ELP    FX     
QR8579                             A332                 ADSB   A7-AFG               QR     
SK2636                             B736                 ADSB   LN-RRZ FRA    ARN    SK     
U28530                             A320                 ADSB   G-EZTE NAP    LGW    U2     
DJ894                              B738                 ADSB   VH-VUQ SYD    MEL    DJ     
                                   B77W                 ADSB   N730AN                      
FX1558                             B752                 ADSB   N935FD MEM    CHS    FX     
AYY114                             LJ55                 MLAT   D-COOL                      
FR3782                             B738                 ADSB   EI-DAC BRE    PMI    FR     
CZ6327                             A320                 ADSB   B-1690 HGH    SZX    CZ     
VY2286                             A320                 ADSB   EC-MJC BCN    XRY    VY     
5X990                              B752                 ADSB   N423UP SDF    BFI    5X     
FX1495                             B752                 ADSB   N958FD MEM    BOI    FX     
5X916                              B763                 ADSB   N301UP SDF    ONT    5X     
EU2278                             A320                 ADSB   B-1631 WUH    NNG    EU     
SN3148                             A319                 ADSB   OO-SSW LIN    BRU    SN     
EK219                              B77W                 ASDI   A6-ECE DXB    MCO    EK     
AA1818                             E190                 ASDI   N948UW CLE    PHL    AA     
AA2315                             MD83                 ASDI          OKC    DFW    AA     
LH1238                             A321                 ADSB   D-AIST FRA    VIE    LH     
GH1023                             B738                 ADSB   VQ-BRP DME    AER    GH     
AX4369                             E145                 ASDI   N615AE STL    DCA    AX     
G52735                             A320                 ADSB   B-8696 CKG    YTY    G5     
CA8353                             B738                 ADSB   B-5585 TSN    CGQ    CA     
ZW4177                             CRJ2                 ASDI          ABE    PHL    ZW     
NH933                              B763                 ESTI   JA620A NRT    CAN    NH     
BK2870                             B739                 ESTI   B-1522 HKD    XIY    BK     
UA923                              B789                 ADSB   N17963 LAX    LHR    UA     
BA98                               B789                 ADSB   G-ZBKE YYZ    LHR    BA     
CA1304                             B744                 ADSB   B-2445 SZX    PEK    CA     
CZ6560                             A320                 ADSB   B-6651 CGO    HAK    CZ     
SU2011                             A320                 ADSB   VP-BFH PRG    SVO    SU     
W67305                             A320                 ADSB   HA-LYW IEV    FMM    W6     
CZ302                              A333                 ADSB   B-8363 SYD    CAN    CZ     
AC869                              B788                 OCEA   C-GHPV LHR    YYZ    AC     
UT250                              B738                 ADSB   VQ-BJJ AER    VKO    UT     
CA1902                             B38M                 ADSB   B-1397 URC    PEK    CA     
DP812                              B738                 ADSB   VQ-BWG PSA    VKO    DP     
AF223                              B772                 ADSB   F-GSPZ MLE    CDG    AF     
OZ203                              A388                 ASDI   HL7635 LAX    ICN    OZ     
ISV752                             AT76                 ADSB   HR-AYM GUA    SAP           
FIN1EB                             A320                 ADSB   OH-LXB HEL    ARN    AY     
ZH9606                             B738                 ADSB   B-5673 SHE    SZX    ZH     
QZ554                              A320                 ADSB   PK-AXD DPS    KUL    QZ     
HH6213                             MD88                 ADSB   EP-TBC MHD    AWZ    HH     
MU2611                             B738                 ADSB   B-1537 WUH    CTU    MU     
B6209                              A320                 OCEA   N656JB JFK    SDQ    B6     
BA16                               B77W                 ADSB   G-STBH SYD    SIN    BA     
EY37                               B77W                 ADSB   A6-ETN AUH    CDG    EY     
W8907                              B752                 ADSB   C-FLAJ CVG    YMX    W8     
US4939                             DH8C                 MLAT   N328EN SBY    CLT    US     
Y4993                              A320                 ADSB   XA-VLX OAK    BJX    Y4     
MU767                              A332                 OCEA   B-5902 TAO    SFO    MU     
CA981                              B748                 OCEA   B-2486 PEK    JFK    CA     
I49556                             A332                 ADSB   EI-FNX               I4     
DL1304                             B712                 MLAT   N952AT ABE    ATL    DL     
QR296                              A320                 ADSB   A7-ADC KBP    DOH    QR     
FX5342                             B77L                 ESTI   N890FD CDG    CAN    FX     
6E399                              A320                 ESTI   VT-IAL DEL    GOI    6E     
EI105                              A333                 ESTI   EI-EDY DUB    JFK    EI     
AF1775                             A318                 ADSB   F-GUGC OSL    CDG    AF     
WN1187                             B738                 ADSB   N8532S IND    DEN    WN     
TK493                              B738                 ADSB   TC-JVH IST    ORN    TK     
DL760                              A319                 ASDI          FAI    SEA    DL     
PC3051                             B738                 ESTI   TC-IZD ADB    BAL    PC     
B61143                             A320                 MLAT   N580JB EWR    PBI    B6     
UA591                              A320                 MLAT   N470UA RDU    IAD    UA     
DL689                              MD88                 ASDI          GRR    ATL    DL     
BT618                              BCS3                 ADSB   YL-CSC AMS    RIX    BT     
QK797                              DH8A                 ASDI          YFC    YOW    QK     
SK4546                             B736                 ADSB   LN-RPF OSL    ALF    SK     
CX521                              B77W                 ADSB   B-KPW  NRT    HKG    CX     
ZW3802                             CRJ2                 ADSB   N454AW CAE    IAD    ZW     
DJ1845                             F100                 ADSB   VH-FNN PER    PHE    DJ     
BLOCKED                            PA31                 ASDI   BLOCKEDKVVS   KMQY          
OD308                              B738                 ADSB   9M-LCK KUL    DPS    OD     
BA816                              A320                 ADSB   G-EUUY LHR    CPH    BA     
DJ999                              B738                 ADSB   VH-VUX SYD    BNE    DJ     
TP321                              A320                 ADSB   CS-TNG MAN    LIS    TP     
PSC835                             JS32                 ASDI          YHU    YQB           
EK9                                A388                 ADSB   A6-EOJ DXB    LGW    EK     
FR5050                             B738                 ADSB   EI-DAM TSF    SUF    FR     
JL749                              B789                 ADSB   JA870J NRT    DEL    JL     
QR245                              B77W                 ADSB   A7-BEE DOH    IST    QR     
ID7128                             A320                 ADSB   PK-LUR BKS    HLP    ID     
KE627                              B77W                 ADSB   HL8208 ICN    CGK    KE     
AA991                              B763                 ADSB   N347AN MIA    CNF    AA     
VY8710                             A321                 ADSB   EC-MGZ BCN    VIE    VY     
LH2509                             A320                 ADSB   D-AIPP BHX    MUC    LH     
N810GC                             PA31                 ASDI   N810GC CHS    KCRG          
TK1722                             A321                 ADSB   TC-JTF TXL    IST    TK     
QF12                               A388                 ESTI   VH-OQL LAX    SYD    QF     
MI978                              A320                 ADSB   9V-SLL SIN    CKG    MI     
DL180                              B763                 ESTI   N153DL NRT    HNL    DL     
AD2572                             A20N                 ADSB   PR-YRB GRU    REC    AD     
CZ6413                             A320                 ADSB   B-6785 SHE    DAT    CZ     
AR1304                             A332                 ADSB   LV-FVI EZE    MIA    AR     
WN1275                             B738                 ADSB   N8634A MDW    RSW    WN     
AM58                               B788                 ADSB   XA-AMX MEX    NRT    AM     
G31614                             B738                 ESTI   PR-GUZ GRU    REC    G3     
8Q415                              A321                 ADSB   TC-OEA IST    DUS    8Q     
PG235                              A320                 ADSB   HS-PGV BKK    CEI    PG     
N352SR                             SR22                 ASDI   N352SR GNV    MIA           
WY131                              B789                 ADSB   A4O-SD MCT    CDG    WY     
CA4587                             A321                 ADSB   B-6675 CTU    WUH    CA     
IB6673                             A333                 ADSB   EC-LXK MAD    SDQ    IB     
NS3528                             B738                 ADSB   B-7227 SIN    HGH    NS     
5X9867                             B763                 ASDI          HNL    ONT    5X     
NK273                              A319                 ASDI          CAK    TPA    NK     
B61836                             E190                 MLAT   N324JB DTW    BOS    B6     
FX67                               A306                 ADSB   N692FE MEM    MTY    FX     
TR303                              A320                 ADSB   9V-TAQ SGN    SIN    TR     
FB462                              A320                 ADSB   LZ-FBE AMS    SOF    FB     
9C8901                             A320                 ADSB   B-6863 SHA    MIG    9C     
AI405                              A319                 ADSB   VT-SCX DEL    VNS    AI     
U22668                             A319                 ADSB   OE-LQX TLL    MXP    U2     
QR638                              B77W                 ESTI   A7-BAZ DOH    DAC    QR     
WN1806                             B737                 ASDI   N272WN MHT    MCO    WN     
AA1116                             B738                 ASDI   N301NW LAX    ATL    AA     
AA3683                             E75L                 ADSB   N263NN GRR    DFW    MQ     
N34K                               C185                 ASDI   N34K   K48A   KRYY          
AA1574                             A319                 ADSB   N9002U ATL    ORD    AA     
NJE716A                            C56X                 ADSB   CS-DXN                      
NK521                              A321                 ADSB   N674NK EWR    FLL    NK     
IB6845                             A332                 ADSB   EC-MNK MAD    EZE    IB     
U62871                             A320                 ADSB   VP-BIE KRR    EVN    U6     
U26276                             A320                 ADSB   G-EZUD KRK    BRS    U2     
6E912                              A320                 ADSB   VT-IFM DED    BLR    6E     
IB6833                             A346                 ADSB   EC-JLE MAD    SCL    IB     
5X3972                             B752                 ADSB   N421UP RFD    PDX    5X     
SG124                              B738                 ADSB   VT-SGX DEL    DED    SG     
NX1                                A321                 ADSB   B-MCD  PEK    MFM    NX     
WG516                              B738                 ADSB   C-FYLC CUN    YYZ    WG     
LH104                              A321                 ADSB   D-AISX FRA    MUC    LH     
PR732                              A321                 ADSB   RP-C9925MNL    BKK    PR     
                                   B762                 ADSB   N659GT                      
AS108                              B739                 ASDI          ANC    SEA    AS     
CZ3359                             A321                 ADSB   B-8849 PVG    CTU    CZ     
RW3515                             E170                 MLAT   N859RW CMH    EWR    RW     
AF429                              A343                 ADSB   F-GLZU BOG    CDG    AF     
7L618                              B748                 ADSB   VQ-BBH GYD    FRU    7L     
TP349                              E190                 ESTI   CS-TPQ LCY    LIS    TP     
BE1273                             DH8D                 MLAT   G-KKEV MAN    AMS    BE     
KE552                              B748                 ADSB   HL7624 NRT    ICN    KE     
EI651                              A320                 ADSB   EI-DVL FRA    DUB    EI     
CM338                              B738                 ESTI   HP-1533CMPLIM    PTY    CM     
HBSRB                              AAT3                 MLAT   HB-SRB                      
9W309                              B738                 ADSB   VT-JFH BHJ    BOM    9W     
TG639                              A333                 ADSB   HS-TBG HKG    BKK    TG     
WN1657                             B738                 ADSB   N8639B BUF    TPA    WN     
AF6213                             A320                 ADSB   F-HBNF NCE    ORY    AF     
OS662                              E195                 ADSB   OE-LWO KBP    VIE    OS     
CI16                               A359                 ADSB   B-18906TPE    SFO    CI     
GA135                              B738                 ADSB   PK-GND DJB    CGK    GA     
BK2782                             B738                 ADSB   B-5841 KLO    XIY    BK     
TWG200                             F406                 ADSB   D-ICCC                      
LX2142                             A320                 ADSB   HB-IJK ZRH    VLC    LX     
5X952                              B752                 ADSB   N470UP SDF    OAK    5X     
N64367                                                  ASDI   N64367                      
UB3                                B738                 ADSB   XY-ALB RGN    SIN    UB     
CM290                              B738                 ESTI   HP-1535CMPASU    PTY    CM     
HX68                               A359                 ESTI   B-LGA  HKG    LAX    HX     
PS232                              B763                 MLAT   UR-GEA JFK    KBP    PS     
JL62                               B77W                 OCEA   JA736J NRT    LAX    JL     
KE682                              A333                 ADSB   HL7553 SGN    ICN    KE     
B61502                             A321                 ASDI   N907JB FLL    JFK    B6     
MRA636                             C208                 ASDI          RDU    KMQI          
G76266                             CRJ9                 MLAT   N187GJ IAD    DTW    G7     
KM101                              A320                 ADSB   9H-AEQ LHR    MLA    KM     
BYA226                             E120                 ASDI          GDC    KNEW          
UA33                               B789                 OCEA   N29968 NRT    LAX    UA     
A7GHO                              A139                 ADSB   A7-GHO                      
BLD08                              BE76                 MLAT   G-GPAT                      
RS7649                             E170                 MLAT   C-FRQK EWR    YYZ    RS     
AF1429                             A320                 ADSB   F-GKXO BLQ    CDG    AF     
LY323                              B744                 ADSB   4X-ELD TLV    CDG    LY     
5X982                              B763                 ADSB   N351UP SDF    BFI    5X     
UA142                              B788                 OCEA   N26909 NRT    DEN    UA     
OZ7315                             A321                 ADSB   HL8071 ICN    PQC    OZ     
DE6168                             A332                 ADSB   C-GTSZ FRA    LRM    DE     
BY6464                             B752                 ESTI   G-OOBG BRS    ACE    BY     
EK61                               B77W                 ADSB   A6-ENB DXB    HAM    EK     
HU7048                             B738                 ADSB   B-1793 XMN    HAK    HU     
                                                        ADSB                               
FX1404                             A306                 ADSB   N656FE MEM    LAX    FX     
5N532                              B735                 ADSB   VP-BRI KUF    LED    5N     
TK343                              B739                 ADSB   TC-JYO FRU    IST    TK     
LS286                              B738                 ADSB   G-JZBG GVA    LBA    LS     
AD4352                             AT76                 ADSB   PR-AKF VCP    IZA    AD     
VJT449                             CL35                 ADSB   9H-VCO                      
KL1233                             B738                 ADSB   PH-BGC AMS    CDG    KL     
VJ518                              A321                 ADSB   VN-A651DAD    HAN    VJ     
VJT929                             GLEX                 ADSB   9H-VJS                      
Y87532                             B738                 ADSB   B-1571 HYN    ZUH    Y8     
AA468                              A321                 ADSB   N553UW ORD    CLT    AA     
HBAL104                            BALL                 ADSB   N/A                         
MM9                                A320                 ADSB   JA816P KIX    ICN    MM     
LH410                              A346                 ADSB   D-AIHA MUC    JFK    LH     
DL112                                                   OCEA          KOA    SEA    DL     
CX48                               B744                 ADSB   B-LIB  DAC    HAN    CX     
AK887                              A320                 ADSB   9M-AJZ DMK    KUL    AK     
BLOCKED                            RJ85                 ADSB   BLOCKED                     
DJ354                              B738                 ADSB   VH-YIF BNE    MEL    DJ     
5X856                              B752                 ADSB   N432UP RFD    PHX    5X     
BA154                              A321                 ADSB   G-MEDG CAI    LHR    BA     
U24547                             A319                 ADSB   G-EZDF SXF    MRS    U2     
LY8                                B744                 ADSB   4X-ELC JFK    TLV    LY     
AF7627                             A321                 ADSB   F-GTAY BOD    CDG    AF     
5J462                              A320                 ADSB   RP-C3238ILO    MNL    5J     
AT910                              B788                 ADSB   CN-RGS CMN    IST    AT     
ZI232                              A320                 ADSB   F-HBAO QSF    ORY    ZI     
JJ8116                             A321                 ADSB   PT-MXM GRU    COR    JJ     
BHL46                              A139                 ADSB   9Y-DEL                      
JAI823T                            B738                 ADSB   VT-JFY               9W     
LR671                              A320                 ESTI   N686TA JFK    SAL    LR     
WN1295                             B737                 ADSB   N960WN ORF    MDW    WN     
MQ3391                             E135                 ASDI          SPS    DFW    MQ     
USC46                              LJ35                 ADSB   N220CK KTVF   LCK           
RW6106                             E170                 MLAT   N823MD LGA    IAH    RW     
KE93                               B77W                 ASDI   HL8011 ICN    IAD    KE     
EV4431                             E45X                 MLAT   N14148 FWA    EWR    EV     
WG1361                             E110                 MLAT   N115WA BUF    PBG    WG     
QR714                              B77L                 ESTI   A7-BBG IAH    DOH    QR     
BHL532                             A139                 ADSB   G-CIPX                      
TP73                               A332                 ESTI   CS-TOO LIS    GIG    TP     
SU293                              B77W                 ESTI   VQ-BUC SGN    SVO    SU     
RW3626                             E170                 ASDI          BTR    IAH    RW     
HU7350                             B738                 ADSB   B-5462 CTU    CAN    HU     
TG962                              B77W                 ADSB   HS-TKR BKK    ARN    TG     
MN502                              B738                 ADSB   ZS-ZWD DUR    HLA    MN     
AF76                               B772                 OCEA   F-GSPJ LAX    PPT    AF     
HBAL029                            BALL                 ADSB   N/A                         
UO567                              A320                 ADSB   B-LCJ  CXR    HKG    UO     
CX252                              B77W                 ADSB   B-KPD  LHR    HKG    CX     
G41658                             A320                 ADSB   N224NV PGD    SBN    G4     
TK1885                             A321                 ADSB   TC-JRZ IST    VIE    TK     
XQ140                              B738                 ADSB   TC-SNP AYT    FRA    XQ     
FD351                              A320                 ADSB   HS-ABE DMK    SIN    FD     
SQ948                              A333                 ADSB   9V-SSB SIN    DPS    SQ     
KE917                              A332                 ESTI   HL7552 ICN    ZRH    KE     
UK885                              A320                 ADSB   VT-TTG DEL    COK    UK     
WN1139                             B737                 ASDI          HOU    ATL    WN     
N228CH                             TBM8                 ADSB   N228CH RDU    AVL           
PG951                              A319                 ADSB   HS-PPG USM    KUL    PG     
EK733                              B77W                 ADSB   A6-EGV DXB    KRT    EK     
TP229                              A332                 ESTI   CS-TOG LIS    MIA    TP     
APC51                              PA31                 ASDI          KSFF   BFI           
UA957                              B764                 OCEA   N76054 GVA    EWR    UA     
PK891                              A320                 ADSB   VN-A699BKK    KHI    PK     
FD409                              A320                 ADSB   HS-BBL HDY    CNX    FD     
GA192                              B738                 ESTI   PK-GFH CGK    KNO    GA     
HV6901                             B738                 ADSB   PH-HXB AMS    DXB    HV     
RV1882                             B763                 ADSB   C-GDUZ YUL    CUN    RV     
PR103                              B77W                 OCEA   RP-C7775LAX    MNL    PR     
UJC400                             J328                 ASDI          LUK    MMU           
N265CM                             C560                 ADSB   N265CM CLT    GRR           
CI64                               A359                 ADSB   B-18910VIE    TPE    CI     
SQ7348                             B744                 ADSB   9V-SFK SHJ    AMS    SQ     
8C3742                             B762                 ADSB   N763CX DFW    ABE    8C     
OD182                              B738                 ADSB   9M-LNY KUL    KTM    OD     
FR8249                             B738                 ADSB   EI-ESM FAO    BRS    FR     
NJE952A                            GLEX                 ADSB   CS-GLD                      
NZ10                               B772                 ESTI   ZK-OKH AKL    HNL    NZ     
EK215                              A388                 ESTI   A6-EOL DXB    LAX    EK     
SNC1315                            SH36                 ASDI          CVG    MDT           
AC12                               B789                 ESTI   C-FRSA TPE    YVR    AC     
JJ9000                             A320                 ADSB   PR-MHK BSB    FOR    JJ     
V9311                              A320                 ADSB   HS-VKB HKT    BKK    V9     
JL3057                             B738                 ADSB   JA338J NRT    FUK    JL     
SQ208                              A359                 ESTI   9V-SMP MEL    SIN    SQ     
5X56                               B744                 ADSB   N581UP ONT    HNL    5X     
NH819                              B788                 ESTI   JA808A NRT    MNL    NH     
SQ117                              A333                 ADSB   9V-STA KUL    SIN    SQ     
DP195                              B738                 ADSB   VQ-BTE VKO    OGZ    DP     
WY374                              B738                 ESTI   A4O-BG CMB    MCT    WY     
TG660                              B744                 ESTI   HS-TGY BKK    HND    TG     
N801XA                             B738                 ADSB   N801XA                      
EY28                               A332                 ADSB   A6-EYP EDI    AUH    EY     
AM692                              B738                 ADSB   XA-AMC MEX    YYZ    AM     
BY137                              B788                 ADSB   G-TUIH HKT    MAN    BY     
OD157                              B738                 ADSB   9M-LNP KUL    DPS    OD     
7L786                              B748                 ESTI   VQ-BBM ORD    GYD    7L     
AF1620                             A320                 ADSB   F-HEPD CDG    TLV    AF     
FR8011                             B738                 ADSB   EI-EBE DUB    WMI    FR     
SU200                              A333                 ADSB   VQ-BNS SVO    PEK    SU     
AT724                              E190                 ADSB   CN-RGP CMN    SXB    AT     
OQ2354                             A320                 ADSB   B-9932               OQ     
FX1407                             DC10                 ADSB   N359FE MEM    MSP    FX     
OD1823                             AT76                 ADSB   9M-LMM               OD     
HV5820                             B738                 ADSB   PH-HZW BRI    AMS    HV     
7C1103                             B738                 ADSB   HL8062 NRT    ICN    7C     
7C2462                             B738                 ADSB   HL8234 CEB    ICN    7C     
AC603                              A320                 ASDI   C-GKOD YHZ    YYZ    AC     
AA737                              A333                 ESTI   N270AY LHR    PHL    AA     
FM853                              B738                 ESTI   B-6698 PVG    BKK    FM     
DL1388                             B752                 ESTI   N669DN LAX    SJO    DL     
SU2318                             A320                 ADSB   VP-BZR SVO    SXF    SU     
JJ8084                             B77W                 ADSB   PT-MUF GRU    LHR    JJ     
FX152                              A306                 ADSB   N741FD IND    YMX    FX     
5X946                              B763                 ADSB   N308UP SDF    OAK    5X     
WW761                              A321                 ADSB   TF-SON FRA    KEF    WW     
CA168                              A321                 ADSB   B-6823 HND    PEK    CA     
CZ3157                             A321                 ADSB   B-6630 SZX    PEK    CZ     
UA105                              B763                 ESTI   N662UA IAH    GRU    UA     
RSD980                             T204                 ADSB   RA-64523                     
WN1637                             B737                 ADSB   N564WN BOS    DAL    WN     
DL2471                             A319                 ASDI   N339NB BOS    JFK    DL     
D85071                             B738                 ADSB   EI-FJO CPH    AGP    D8     
HY710                              A320                 ADSB   UK32016MSQ    TAS    HY     
RV1828                             B763                 ESTI          OGG    YVR    RV     
DL809                              MD90                 MLAT   N949DN BOS    MSP    DL     
CX716                              A359                 ESTI   B-LRN  SIN    HKG    CX     
JW709                              A320                 ADSB   JA04VA NRT    KIX    JW     
CA4527                             A321                 ADSB   B-6603 CTU    TNA    CA     
KN5960                             B738                 ADSB   B-1426 BAR    PVG    KN     
LX1250                             A320                 ADSB   HB-IJD ZRH    ARN    LX     
5X2997                             B744                 ASDI   N570UP ANC    SDF    5X     
5J456                              A320                 ADSB   RP-C3262ILO    MNL    5J     
MU5051                             A321                 ADSB   B-9947 PVG    ICN    MU     
OO5341                             E170                 ADSB   N120SY YOW    ORD    OO     
VY1298                             A320                 ADSB   EC-LUO LCG    SVQ    VY     
RDDL458                                                 ASDI                               
IJM619                             GL5T                 ADSB   OE-LPZ                      
RU386                              B744                 ESTI   VQ-BIA CGO    SVO    RU     
PR337                              A321                 ADSB   RP-C9902PVG    MNL    PR     
FR8838                             B738                 ADSB   EI-EPD BGY    TFS    FR     
8M607                              A319                 ADSB   XY-AGR RGN    CCU    8M     
UA1724                                                  OCEA          KOA    SFO    UA     
SG60                               B738                 ADSB   TC-TJS DXB    IXE    SG     
TK401                              A321                 ADSB   TC-JSP IST    LED    TK     
AV9450                             A320                 ADSB   N750AV BOG    CUC    AV     
HU7160                             B738                 ADSB   B-5735 SJW    HAK    HU     
EI236                              A320                 ADSB   EI-DEB DUB    LGW    EI     
M6819                              B762                 ASDI          MIA    KIN    M6     
FR15                               B738                 ADSB   EI-DWS STN    ATH    FR     
TO4101                             B738                 ADSB   F-HTVE DJE    ORY    TO     
LS631                              B738                 ADSB   G-JZHG EMA    ACE    LS     
SL8081                             B739                 ADSB   HS-LTY CSX    URT    SL     
DJ159                              B738                 ADSB   VH-YIH AKL    BNE    DJ     
AS818                                                   OCEA          HNL    SEA    AS     
CV778                              B744                 ADSB   LX-JCV JFK    MEX    CV     
DL921                              B738                 MLAT   N3732J LAX    CVG    DL     
MU5194                             A321                 ADSB   B-8559 PEK    TAO    MU     
WW443                              A321                 ADSB   TF-GPA AMS    KEF    WW     
CZ6117                             A321                 ADSB   B-6319 PEK    INC    CZ     
CZ6272                             A321                 ADSB   B-8995 CSX    HRB    CZ     
CWL18P                             G12T                 ADSB   ZM312                       
DMAWF                              GX                   ADSB   D-MAWF                      
W63331                             A320                 ADSB   HA-LWY CLJ    BVA    W6     
QR726                              B77W                 ESTI   A7-BAK ORD    DOH    QR     
AF291                              B772                 ADSB   F-GSPR KIX    CDG    AF     
PS416                              B738                 ADSB   UR-PSS MUC    KBP    PS     
FR7327                             B738                 ADSB   EI-EPC PRG    DUB    FR     
AF192                              B77W                 ADSB   F-GSQV CDG    BLR    AF     
N905SH                             BE20                 ASDI   N905SH FSD    DIK           
KL1280                             B738                 ADSB   PH-BXE EDI    AMS    KL     
CZ3416                             B738                 ADSB   B-5189 KMG    CAN    CZ     
KL1895                             E190                 MLAT   PH-EZD AMS    GRZ    KL     
BE763                              DH8D                 MLAT   G-JEDV EDI    SOU    BE     
B6830                              A320                 ADSB   N536JB SDQ    BOS    B6     
FR9134                             B738                 ADSB   EI-EVL BVA    OPO    FR     
UX9118                             B738                 ADSB   EC-MJU MAD    TFN    UX     
LP2432                             A320                 ESTI   CC-BJF ROS    LIM    LP     
3O334                              A320                 ADSB   CN-NMJ MPL    RAK    3O     
B6934                              E190                 ASDI   N184JB SJU    MCO    B6     
3U8216                             A320                 ESTI   B-8499 CGO    KMG    3U     
Y4732                              A321                 ADSB   XA-VLJ MEX    GDL    Y4     
PG873                              A319                 ESTI   HS-PGY USM    HKG    PG     
PK308                              B772                 ESTI   AP-BMG KHI    ISB    PK     
PQ7113                             A320                 ESTI   RP-C8978KUL    CEB    PQ     
AA2715                             B738                 ESTI   N967AN FLL    DFW    AA     
EK419                              A388                 ADSB   A6-EDE SYD    BKK    EK     
WY254                              B738                 ESTI   A4O-BAGMAA    MCT    WY     
JL2016                             B738                 ADSB   JA313J CTS    ITM    JL     
3K541                              A320                 ADSB   9V-JSI SIN    DAD    3K     
BV2247                             B738                 ADSB   EI-CSI TIA    TRN    BV     
HX691                              A333                 ADSB   B-LNO  CTS    HKG    HX     
NH215                              B789                 ADSB   JA875A HND    CDG    NH     
FRG1050                            B190                 ASDI          MKE    LAN           
U28190                             A319                 ADSB   G-EZDM MXP    LGW    U2     
N89LR                              BE36                 ASDI   N89LR                       
OS9505                             A321                 ADSB   OE-LBE VIE    TFS    OS     
AI162                              B788                 ADSB   VT-ANC LHR    DEL    AI     
EY16                               B77W                 ADSB   A6-ETD MAN    AUH    EY     
Y4540                              A20N                 ADSB   N528VL TIJ    OAX    Y4     
EW2047                             A319                 ADSB   D-AKNJ HAM    STR    EW     
OD131                              B738                 ESTI   9M-LNM KUL    LHE    OD     
FR2020                             B738                 ADSB   EI-DLF BUD    PMO    FR     
YV6098                             E170                 ADSB   N86334 ATL    IAD    YV     
DL2099                             MD88                 ASDI   N960DL SDF    ATL    DL     
SG163                              B738                 ADSB   VT-SZB BOM    COK    SG     
FR2679                             B738                 ADSB   EI-FOO LTN    CPH    FR     
DL1537                             MD88                 ADSB   N904DL FAY    ATL    DL     
AK5195                             A20N                 ADSB   9M-AGQ SDK    KUL    AK     
JJ4780                             A321                 ADSB   PT-XPJ CWB    GIG    JJ     
EY72                               A320                 ADSB   A6-EIY BEG    AUH    EY     
SC4882                             B738                 ADSB   B-5727 PEK    WEH    SC     
UA1200                             B739                 ADSB   N53442 SFO    IAH    UA     
SU2321                             A320                 ADSB   VQ-BKU MUC    SVO    SU     
G31923                             B738                 ADSB   PR-GGM BSB    POA    G3     
NZ23                               B772                 OCEA   ZK-OKE YVR    AKL    NZ     
UA1591                             B737                 MLAT   N39728 BTV    EWR    UA     
DL1617                             MD90                 ASDI          PBI    ATL    DL     
NY16                               DH8B                 ADSB   TF-FXK RKV    IFJ    NY     
KL571                              B772                 ADSB   PH-BQK AMS    JRO    KL     
G9444                              A320                 ESTI   A6-AOJ SHJ    TRV    G9     
UA18                               B763                 ADSB   N673UA MXP    EWR    UA     
9W624                              B738                 ADSB   VT-JGG CCU    BOM    9W     
                                   A321                 ADSB   N679NK                      
5X942                              B763                 ADSB   N324UP SDF    OAK    5X     
S7921                              A319                 ADSB   VP-BTT DME    VAR    S7     
IB6315                             A346                 ADSB   EC-IOB MAD    SJO    IB     
SV885                              B77W                 ADSB   HZ-AK21CAN    RUH    SV     
CFYEV                              BE9T                 MLAT   CFYEV  YDT    BOS           
JQ527                              A321                 ADSB   VH-VWN SYD    MEL    JQ     
AC112                              A139                 ADSB   279                  AC     
T0904                              A319                 ESTI   N521TA MVD    LIM    T0     
LQ64                               B738                 ADSB   JA802X KMI    HND    LQ     
BW300                              AT76                 ADSB   9Y-TTB POS    CCS    BW     
EK408                              B77W                 ADSB   A6-ECC DXB    MEL    EK     
LH1790                             A319                 ADSB   D-AIBB MUC    LIS    LH     
FR2615                             B738                 ADSB   EI-ESW KTW    ATH    FR     
EK8                                A388                 ADSB   A6-EED LHR    DXB    EK     
AM580                              B738                 ESTI   XA-AMS CUN    MEX    AM     
UA1                                B789                 OCEA   N19951 SFO    SIN    UA     
SN2714                             A320                 ADSB   OO-SNG GVA    BRU    SN     
UA850                              B772                 OCEA   N798UA PEK    ORD    UA     
J2684                              A320                 ADSB   4K-AZ83KBP    GYD    J2     
FZ524                              B38M                 ADSB   A6-MAX BKK    DXB    FZ     
RW5987                             E170                 ASDI          CMH    BOS    RW     
KL451                              A332                 ADSB   PH-AOM AMS    AUH    KL     
DE185                              B763                 ADSB   D-ABUB HAV    FRA    DE     
8L805                              A320                 ADSB   B-8445 KMG    KBV    8L     
8C555                              B752                 ASDI          CVG    BWI    8C     
W63002                             A321                 ADSB   HA-LXA LTN    OTP    W6     
PHPKF                              F2TH                 ADSB   PH-PKF                      
ME218                              A320                 ADSB   T7-MRA FRA    BEY    ME     
SN501                              A332                 ADSB   OO-SFU BRU    JFK    SN     
WN1500                             B738                 ADSB   N8555Z ALB    MDW    WN     
DFOUR                              TBM9                 ADSB   OE-EMG                      
ID6891                             B738                 ADSB   PK-LBW KNO    CGK    ID     
FR8241                             B738                 ADSB   EI-FIC VCE    BRS    FR     
Y7917                              B738                 ADSB   VQ-BKR SVX    ROV    Y7     
CALIBRA                            BE20                 ADSB   CALIBRA                     
DLH5Y                              A346                 ADSB   D-AIHC ORD    MUC    LH     
WR3449                             DH8D                 ASDI          YQB    YUL    WR     
SU1605                             A320                 ADSB   VQ-BSH KUF    SVO    SU     
CZ6343                             A320                 ESTI   B-6776 SHE    CAN    CZ     
LH2453                             A320                 ADSB   D-AIZB OSL    MUC    LH     
F91779                             A320                 ADSB   N211FR ISP    MCO    F9     
MQ3400                             E145                 ASDI   N908AE CVG    ORD    MQ     
QF7558                             B744                 ADSB   N409MC LAX    HNL    QF     
NJE298D                            E55P                 ADSB   CS-PHJ                      
YBW                                DA42                 ADSB   VH-YBW                      
LS672                              B733                 ADSB   G-CELY GVA    EMA    LS     
JL925                              B763                 ESTI   JA655J HND    OKA    JL     
BLOCKED                            DH8C                 ASDI   BLOCKEDYUL    YBG    PB     
NH269                              B772                 ADSB   JA706A HND    FUK    NH     
FX1859                             B752                 ADSB   N953FD OAK    BOI    FX     
KL103                              B77W                 ESTI   PH-BVS AMS    CPT    KL     
QS1210                             B738                 ADSB   SP-TVZ PRG    FUE    QS     
AFR29NP                            A319                 ADSB   F-GRHE AMS    MRS    AF     
PCH547                             PC12                 ADSB   HB-FXM                      
SN3202                             A319                 ADSB   OO-SSQ VCE    BRU    SN     
GA373                              B738                 ADSB   PK-GNT SUB    BDO    GA     
PO7970                             B748                 ADSB   N857GT ICN    HKG    PO     
AZ787                              A332                 ADSB   EI-EJO NRT    MXP    AZ     
MH763                              B738                 ADSB   9M-MXU PNH    KUL    MH     
DJ2                                B77W                 OCEA   VH-VPE LAX    SYD    DJ     
JL267                              B738                 ADSB   JA350J HND    HIJ    JL     
EW9518                             A320                 ADSB   D-AIZQ DUS    BIO    EW     
G32026                             B738                 ADSB   PR-GTL GIG    SSA    G3     
AA1730                             E190                 ASDI   N952UW BDL    PHL    AA     
BLOCKED                            GLF5                 ADSB   BLOCKED                     
N417MH                             C25A                 ADSB   N417MH                      
AZ815                              A320                 ADSB   I-BIKD TLV    FCO    AZ     
QR8755                             A332                 ADSB   A7-AFY OSL    DOH    QR     
DL2482                             B712                 MLAT   N927AT MDT    ATL    DL     
MU2045                             A320                 ADSB   B-2208 YNT    FOC    MU     
                                   C525                 ADSB   3A-MSR                      
SJ183                              B738                 ADSB   PK-CLT PNK    CGK    SJ     
NH689                              B738                 ADSB   JA70AN HND    HIJ    NH     
KE25                               B77W                 ADSB   HL8042 ICN    SFO    KE     
6E5401                             A20N                 ADSB   VT-IVF CCU    IXB    6E     
KA8457                             A320                 ADSB   B-HSG  TKS    HKG    KA     
AY124                              A333                 ADSB   OH-LTU GOI    HEL    AY     
TK1823                             B738                 ADSB   TC-JGZ IST    CDG    TK     
FX5279                             B77L                 ESTI   N868FD DXB    CDG    FX     
IK404                              B738                 ESTI   VP-BPI TLV    ZIA    IK     
AF1850                             A318                 ADSB   F-GUGI CDG    CPH    AF     
AA129                              B738                 ADSB   N923NN LGA    MCO    AA     
AK374                              A20N                 ADSB   9M-AGP KUL    DPS    AK     
JJ8062                             B763                 ADSB   PT-MSS GRU    MXP    JJ     
VY8319                             A320                 ADSB   EC-KDG BCN    AMS    VY     
                                   A320                 ADSB   PT-MZW                      
B61678                             E190                 MLAT   N354JB JAX    JFK    B6     
KE111                              A332                 ADSB   HL8227 ICN    GUM    KE     
SCR064                             C525                 ADSB   D-IHEB                      
FR6726                             B738                 ADSB   EI-FZP HHN    PSR    FR     
HU7302                             B738                 ADSB   B-1373 CGO    HAK    HU     
FB471                              E190                 ADSB   LZ-PLO SOF    MAD    FB     
RO422                              B737                 ADSB   YR-BGG BCN    OTP    RO     
LS1451                             B738                 ADSB   G-JZHL STN    FUE    LS     
VN654                              A321                 ADSB   VN-A395SIN    SGN    VN     
S7796                              A320                 ADSB   VQ-BES MUC    DME    S7     
S7955                              A320                 ADSB   VQ-BPL DME    TBS    S7     
5X2901                             MD11                 ASDI   N293UP ONT    PHL    5X     
                                   B739                 ADSB   HL8097                      
SQ7971                             B744                 ADSB   9V-SFP LAX    BRU    SQ     
JQ127                              A320                 ESTI   VH-VFL ADL    DPS    JQ     
LH906                              A20N                 ADSB   D-AINH FRA    LHR    LH     
AF830                              A332                 ESTI   F-GZCN CDG    PNR    AF     
O66281                             A320                 ADSB   PR-OCH POA    BSB    O6     
AC26                               B789                 ADSB   C-FRSE PVG    YVR    AC     
GHKCC                              R66                  MLAT   G-HKCC MAN    BCN    LS     
SK1584                             B738                 ADSB   LN-RGG AGP    ARN    SK     
QR835                              B77W                 ADSB   A7-BAT HAN    BKK    QR     
KA642                              A320                 ADSB   B-HSN  HKG    NGB    KA     
BA573                              A319                 ADSB   G-EUPN MXP    LHR    BA     
MH3                                A388                 ADSB   9M-MNE LHR    KUL    MH     
GF64                               A321                 ADSB   A9C-CD BAH    BOM    GF     
UA1834                             B739                 ADSB   N62889 RSW    EWR    UA     
N448ND                             P28A                 ASDI   N448ND FPR    FPR           
QR1342                             A320                 ADSB   A7-AHD NBO    DOH    QR     
YV5845                             CRJ9                 ASDI          LBB    DFW    YV     
B6272                              A320                 ASDI   N659JB FLL    LGA    B6     
WN285                              B737                 ADSB   N442WN BDL    TPA    WN     
GWFWS                              R22                  MLAT   G-WFWS                      
RLH654X                            B738                 ADSB   B-1593               DR     
RO252                              A318                 ADSB   YR-ASB LCA    OTP    RO     
AK892                              A320                 ADSB   9M-AJE KUL    DMK    AK     
SU1768                             SU95                 ADSB   RA-89062SVO    PEE    SU     
TP1264                             A319                 ADSB   CS-TTC LIS    WAW    TP     
J28585                             A320                 ADSB   4K-AI07              J2     
CX882                              B77W                 ESTI   B-KQK  HKG    LAX    CX     
U21678                             A319                 ADSB   G-EZBF LIL    NAP    U2     
BRO50                              PA31                 MLAT   G-SCIR                      
CZ675                              A320                 ADSB   B-6896 DLC    ICN    CZ     
SK998                              A343                 ESTI   OY-KBC PVG    CPH    SK     
9W259                              B739                 ADSB   VT-JLH KTM    DEL    9W     
                                   B738                 ADSB   B-5387                      
HS12                               F260                 MLAT   ST-41                HS     
Q2551                              A320                 ADSB   8Q-IAN DAC    MAA    Q2     
KLJ101                             B735                 ADSB   LY-KLJ                      
                                   BE9L                 ADSB   PR-GBS                      
TG970                              B77W                 ESTI   HS-TKZ BKK    ZRH    TG     
CSTLO7                             A109                 MLAT   G-LITO                      
FD808                              A320                 ADSB   HS-BBV HKT    WUH    FD     
Y87490                             B744                 ESTI   B-1340 ANC    TSN    Y8     
O66220                             A318                 ADSB   PR-AVJ SDU    BSB    O6     
CFYUT                              PC12                 ADSB   CFYUT                       
N6574E                             C175                 ASDI   N6574E PGD    KRBW          
N888TN                             BE36                 MLAT   N888TN                      
UA1821                             A320                 MLAT   N405UA DFW    IAH    UA     
F9295                              A320                 ADSB   N229FR TPA    DEN    F9     
GAF042                             A400                 ADSB   54+06                       
LH2304                             A320                 ADSB   D-AIUX MUC    AMS    LH     
AF7365                             A319                 ADSB   F-GPMB BES    ORY    AF     
SU1501                             B738                 ADSB   VQ-BWA TJM    SVO    SU     
UO622                              A321                 ADSB   B-LEI  HKG    HND    UO     
B61022                             A320                 ASDI   N552JB PBI    BOS    B6     
FX1490                             B763                 ADSB   N142FE MEM    RNO    FX     
G76275                             CRJ7                 ASDI          SDF    DTW    G7     
QZ221                              A320                 ADSB   PK-AXU PEN    CGK    QZ     
QR269                              A320                 ADSB   A7-ADJ DOH    LCA    QR     
U22083                             A320                 ADSB   G-EZPT LTN    TLV    U2     
WN496                              B738                 ADSB   N8541W FLL    BWI    WN     
CGSAG                              PC12                 ADSB   CGSAG  YHU    CSE5          
B78651                             AT76                 ADSB   B-17013RMQ    MZG    B7     
AI891                              A20N                 ADSB   VT-EXU DEL    GAU    AI     
W62466                             A320                 ADSB   HA-LWH LED    BUD    W6     
SA64                               A319                 ESTI   ZS-SFJ JNB    LUN    SA     
5Y821                              B762                 ASDI          CVG    GSO    5Y     
N24BG                              BE20                 ASDI   N24BG                       
U22016                             A319                 ADSB   G-EZDP FAO    LTN    U2     
RV1740                             A319                 MLAT   C-GARJ YYZ    VRA    RV     
N657DM                             C560                 ASDI   N657DM BUF    SHD           
DJ9921                             F100                 ADSB   VH-FNC               DJ     
BLOCKED                            GLF4                 ADSB   BLOCKED                     
AK306                              A20N                 ADSB   9M-AGH KUL    LOP    AK     
DD7515                             B738                 ADSB   HS-DBY HKT    DMK    DD     
1L374                              E55P                 ADSB   N374QS PDK    TEB    1L     
ZH9449                             A319                 ESTI   B-6159 CAN    YBP    ZH     
QG719                              A320                 ADSB   PK-GQH               QG     
AD2892                             E195                 ADSB   PR-AUF MAO    PVH    AD     
IZ844                              B753                 ADSB   4X-BAW ETH    TLV    IZ     
VJ843                              A320                 ADSB   VN-A676TPE    SGN    VJ     
BW521                              B738                 ADSB   9Y-JMC JFK    POS    BW     
AA2570                             B738                 ASDI          ATL    DFW    AA     
ASJ824                             C25M                 ADSB   F-HBTV                      
W68021                             A320                 ADSB   HA-LYM VNO    BVA    W6     
                                   MD83                 MLAT   N9617R                      
5N538                              B735                 ADSB   VP-BKV KZN    LED    5N     
U62914                             A319                 ADSB   VQ-BTZ KUT    DME    U6     
AA833                              A320                 ASDI   N652AW SLC    CLT    AA     
EDV5003                            CRJ9                 MLAT   N313PQ YYZ    JFK           
UA784                              B739                 ADSB   N37413 MSP    IAH    UA     
TU635                              B736                 ADSB   TS-IOM ORY    DJE    TU     
FX89                               B752                 ADSB   N943FD MEM    QRO    FX     
EZY159T                            A320                 ADSB   D-AICE               U2     
LXJ327                             CL60                 MLAT   N327FX HPN    BUR           
0B168                              B738                 ADSB   YR-BMF BOD    OTP    0B     
DJ1464                             B737                 ESTI   VH-VBY DRW    MEL    DJ     
MU755                              A332                 ESTI   B-5926 KMG    DXB    MU     
WN207                              B737                 ASDI          MSY    ATL    WN     
FX802                              MD11                 ADSB   N588FE HNL    ONT    FX     
U24784                             A320                 ADSB   G-EZOP TLV    SXF    U2     
DL1590                             B712                 ASDI          BOS    RDU    DL     
CA174                              B77W                 ESTI   B-1429 SYD    PEK    CA     
WI8112                             AT76                 ADSB   CS-DJD               WI     
EI146                              A333                 ADSB   EI-GAJ SFO    DUB    EI     
AY1019                             AT75                 MLAT   OH-ATL HEL    TLL    AY     
DL40                               B77L                 OCEA   N702DN SYD    LAX    DL     
RU453                              B748                 ADSB   VP-BBP KJA    AMS    RU     
TS2184                             B738                 ADSB   OK-TSO YYZ    HAV    TS     
FD589                              A320                 ADSB   HS-BBJ XIY    DMK    FD     
D86426                             B738                 ADSB   EI-FJM TFS    OUL    D8     
UA100                              B789                 OCEA   N27965 SYD    IAH    UA     
MU5312                             B738                 ADSB   B-1320 CAN    SHA    MU     
NK954                              A20N                 ADSB   N901NK LAS    FLL    NK     
KC102                              A320                 ADSB   P4-KBD KBP    TSE    KC     
DE1572                             A320                 ADSB   D-AICH MUC    FNC    DE     
U6726                              A319                 ADSB   VQ-BTY TLV    SVX    U6     
NH937                              B763                 ADSB   JA625A NRT    WUH    NH     
RA410                              A320                 ADSB   9N-AKX HKG    KTM    RA     
QF5                                A333                 ESTI   VH-QPD SYD    SIN    QF     
QR211                              A321                 ADSB   A7-ADV DOH    ATH    QR     
RC453                              A319                 ADSB   OY-RCI CPH    FAE    RC     
AA697                                                   OCEA          LIH    PHX    AA     
TS384                              B738                 ADSB   C-FTVF YUL    MBJ    TS     
UX6048                             B738                 ADSB   EC-LPR PMI    MAD    UX     
CX826                              B77W                 ADSB   B-KPZ  HKG    YYZ    CX     
W3662                              B737                 ADSB   5N-MJK LOS    JOS    W3     
CZ3028                             B737                 ESTI   B-5283 DEL    CAN    CZ     
UA1796                             B737                 ASDI   N14704 CLE    ORD    UA     
ID6725                             A320                 ADSB   PK-LUQ KDI    CGK    ID     
TK2036                             B738                 ADSB   TC-JGD IST    KYA    TK     
AF1059                             E170                 MLAT   F-HBXI NCL    CDG    AF     
LX1072                             BCS1                 ADSB   HB-JBG ZRH    FRA    LX     
DL2261                             MD88                 MLAT   N921DL DAY    ATL    DL     
RJ111                              B788                 ADSB   JY-BAG AMM    LHR    RJ     
SQ494                              B77W                 ADSB   9V-SWK SIN    DXB    SQ     
EY41                               A332                 ADSB   A6-EYK AUH    DUB    EY     
RW5890                             E170                 MLAT   N824MD CHS    LGA    RW     
C54931                             E45X                 ASDI          EWR    IAD    C5     
CX473                              A333                 ADSB   B-LAQ  TPE    HKG    CX     
AA260                              A321                 ADSB   N145AN LAX    MIA    AA     
MH783                              B738                 ADSB   9M-MLH BKK    KUL    MH     
                                   E45X                 MLAT   N14116                      
JJ3896                             A321                 ADSB   PT-XPC GRU    SSA    JJ     
NH2                                B77W                 ADSB   JA731A NRT    IAD    NH     
NK1028                             A319                 ADSB   N525NK BWI    BOS    NK     
NH448                              B738                 ADSB   JA80AN FUK    NGO    NH     
BA191                              B789                 ADSB   G-ZBKL LHR    AUS    BA     
3S590                              B77L                 ADSB   D-AALC LEJ    NRT    3S     
KC252                              E190                 ADSB   P4-KCJ IKA    ALA    KC     
IB3406                             A321                 ADSB   EC-JGS MAD    ORY    IB     
QR228                              A320                 ADSB   A7-AHG SOF    DOH    QR     
TK662                              A321                 ADSB   TC-JTO TUN    IST    TK     
TS574                              B738                 ADSB   C-GYQW YUL    LRM    TS     
RW4407                             E170                 ADSB   N437YX IAD    MIA    RW     
XY719                              A320                 ADSB   VP-CXM DMM    YNB    XY     
TROJAN23                            N/A                  ADSB   N/A                         
PR424                              A320                 ESTI   RP-C8614MNL    HND    PR     
AZ61                               A319                 ADSB   EI-IMF MAD    FCO    AZ     
MF8662                             B738                 ADSB   B-5706 KLO    HGH    MF     
KL1200                             B737                 ADSB   PH-BGX SVG    AMS    KL     
EY475                              A332                 ESTI   A6-EYR CGK    AUH    EY     
DC310                              AT76                 ADSB   SE-MKH BMA    AGH    DC     
N430QS                             GLF4                 ADSB   N430QS               1L     
7G90                               A320                 ADSB   JA09MC KKJ    HND    7G     
N340AD                             C340                 ASDI   N340AD KUOX   GPT           
                                   A321                 ADSB   PT-XPD                      
AHO739R                            E55P                 ADSB   D-CASH               HH     
QR729                              B77W                 ESTI   A7-BAB DOH    DFW    QR     
UB17                               B738                 ADSB   XY-ALF RGN    BKK    UB     
US5555                             CRJ9                 ASDI   N568NN CHO    CLT    US     
FM9361                             B738                 ESTI   B-1452 SHA    CSX    FM     
AC8455                             CRJ9                 ADSB   C-GJZT BOS    YUL    QK     
TK1591                             A321                 ADSB   TC-JTA IST    FRA    TK     
CX881                              B77W                 ASDI   B-KPI  LAX    HKG    CX     
TG615                              B77W                 ESTI   HS-TKL PEK    BKK    TG     
LH459                              A346                 ESTI   D-AIHZ SFO    MUC    LH     
PLF034                             C295                 ADSB   015                         
UA37                               B789                 OCEA   N27957 LAX    SIN    UA     
SC8793                             B738                 ESTI   B-5758 XMN    TNA    SC     
BA213                              B772                 ADSB   G-VIIE LHR    BOS    BA     
EK392                              B77W                 ADSB   A6-ENC DXB    SGN    EK     
5X340                              MD11                 OCEA   N258UP SDF    SJU    5X     
AY1302                             A320                 ADSB   OH-LXI AMS    HEL    AY     
EK413                              A388                 ESTI   A6-EUL SYD    DXB    EK     
CMB119                             B763                 ADSB   N342AX                      
AX4610                             E145                 ASDI          CMI    ORD    AX     
FX1750                             MD11                 ASDI   N597FE IND    LAX    FX     
AF84                               B77W                 ESTI   F-GSQM CDG    SFO    AF     
                                   A319                 ADSB   D-AGWH                      
UT706                              B735                 ADSB   VP-BXY TXL    VKO    UT     
5X996                              B763                 ADSB   N339UP ONT    BFI    5X     
CI5542                             B744                 ADSB   B-18722BKK    TPE    CI     
OO4702                             CRJ9                 ASDI          MOT    MSP    OO     
UA998                              B764                 OCEA   N66057 BRU    EWR    UA     
HU7836                             B738                 ADSB   B-5139 CSX    PEK    HU     
HU7067                             B738                 ADSB   B-5663 SZX    XUZ    HU     
PO927                              B748                 ASDI   N851GT LAX    ICN    PO     
GDOSC                              DA42                 MLAT   G-DOSC                      
UA135                              B764                 ADSB   N76062 ZRH    EWR    UA     
KU204                              A320                 ADSB   9K-AKB LHE    KWI    KU     
9W679                              B737                 ADSB   VT-JGY DEL    RPR    9W     
AA2099                             A321                 ADSB   N926UW DFW    CLT    AA     
NATO33                             E3CF                 MLAT   ZH104                       
RW4748                             E170                 ADSB   N404YX CMH    LGA    RW     
SU2425                             B738                 ADSB   VP-BGG BLQ    SVO    SU     
HAT4895                            B734                 ADSB   9H-ZAZ                      
QR170                              B788                 ADSB   A7-BCR ARN    DOH    QR     
FR4193                             B738                 ADSB   EI-FZE BGY    STN    FR     
WS547                              B738                 ADSB   C-GZWS YYT    YYZ    WS     
HO1224                             A321                 ADSB   B-8956 SYX    PVG    HO     
PO948                              B744                 ADSB   N782CK HKG    ANC    PO     
SK531                              A20N                 ADSB   EI-SIA ARN    LHR    SK     
SJ1135                             B738                 ESTI   PK-CMJ FOC    DPS    SJ     
G34931                             B738                 ADSB   PR-GTU BPS    GRU    G3     
PR219                              A343                 ADSB   RP-C3438AKL    MNL    PR     
BC27                               B738                 ADSB   JA73NQ HND    FUK    BC     
TP1553                             A320                 ADSB   CS-TNJ LIS    VXE    TP     
QID42                              K35R                 MLAT   60-0333                     
S4376                              A320                 ADSB   CS-TKK PDL    OPO    S4     
5X108                              B763                 ASDI   N332UP EWR    ANC    5X     
EK205                              A388                 ADSB   A6-EUJ DXB    MXP    EK     
TK1703                             A321                 ADSB   TC-JRR IST    STR    TK     
LS891                              B738                 ADSB   G-JZBF MAN    ACE    LS     
FX1869                             B763                 ADSB   N115FE OAK    LAX    FX     
QR727                              A359                 ADSB   A7-ALK DOH    PHL    QR     
BA2237                             B772                 ADSB   G-YMMS LGW    SJO    BA     
LX161                              A343                 ADSB   HB-JMA NRT    ZRH    LX     
DL6                                A333                 ESTI   N823NW HND    LAX    DL     
CA933                              B77W                 ADSB   B-2006 PEK    CDG    CA     
LH499                              B748                 ADSB   D-ABYM MEX    FRA    LH     
MF8422                             B738                 ADSB   B-6487 KWE    XMN    MF     
GF39                               A320                 ADSB   A9C-AM BAH    ATH    GF     
MF8106                             B789                 ESTI   B-7836 PEK    XMN    MF     
TK1908                             A321                 ADSB   TC-JSZ ZRH    IST    TK     
AA735                              A332                 ESTI   N291AY MAN    PHL    AA     
KL903                              B738                 ADSB   PH-BCE AMS    SVO    KL     
IB3308                             A319                 ADSB   EC-JVE MAD    ALG    IB     
DL2145                             MD88                 ASDI          SAV    ATL    DL     
EDV3901                            CRJ9                 ADSB   N607LR JAX    JFK           
TK417                              B739                 ADSB   TC-JYJ IST    VKO    TK     
NH9372                             B763                 ADSB   JA610A               NH     
DL419                              A333                 ESTI   N806NW MXP    JFK    DL     
U26853                             A319                 ADSB   G-EZFM GLA    AMS    U2     
TG608                              A333                 ADSB   HS-TEU HKT    HKG    TG     
A3621                              A320                 ADSB   SX-DVI BRU    ATH    A3     
BLOCKED                            GLEX                 ESTI   BLOCKEDOPF    ZRH           
FR3131                             B738                 ADSB   EI-DYA STN    PFO    FR     
JL735                              B788                 ESTI   JA831J NRT    HKG    JL     
FR8288                             B738                 ADSB   EI-ENW STN    ACE    FR     
FX1403                             MD11                 ADSB   N596FE MEM    PHX    FX     
AD2603                             AT76                 ADSB   PR-AQN OPS    CGB    AD     
CX95                               B748                 ESTI   B-LJG  YYC    ANC    CX     
CZ604                              B788                 ADSB   B-2788 LHR    CAN    CZ     
CX104                              A359                 ESTI   B-LRQ  MEL    HKG    CX     
BT428                              B735                 ADSB   YL-BBN RIX    SVO    BT     
SU38                               A320                 ADSB   VQ-BAY SVO    LED    SU     
GSARV                              RV4                  ADSB   G-SARV                      
IB3240                             A319                 ADSB   EC-MFP MAD    FCO    IB     
SU1624                             B738                 ADSB   VP-BKA SVO    SIP    SU     
CX695                              A333                 ESTI   B-LAO  HKG    DEL    CX     
AC875                              A333                 ESTI   C-GHKR FRA    YUL    AC     
CX507                              A333                 ADSB   B-HLT  KIX    HKG    CX     
PG806                              A319                 ADSB   HS-PGN HKG    USM    PG     
TA370                              A319                 ADSB   N524TA MDE    SAL    TA     
6E535                              A320                 ADSB   VT-IFJ IXJ    DEL    6E     
BY65                               B788                 ADSB   G-TUIG PQC    LGW    BY     
MT1402                             A321                 ADSB   G-TCDZ FRA    FUE    MT     
SK2615                             B737                 ADSB   SE-RJX ARN    GVA    SK     
SU1621                             A320                 ADSB   VP-BLP SIP    SVO    SU     
SA56                               A332                 ESTI   ZS-SXW JNB    ACC    SA     
PN6303                             A319                 ESTI   B-6413 CGO    LXA    PN     
FX36                               MD11                 ADSB   N590FE IND    STN    FX     
LH1471                             E190                 ADSB   D-AECE TSR    FRA    LH     
MU2668                             A320                 ADSB   B-6559 HGH    XMN    MU     
QR812                              A359                 ESTI   A7-ALL DOH    HND    QR     
SU273                              B77W                 ADSB   VP-BGC BKK    SVO    SU     
RV1854                             B763                 ADSB   C-GHPE LAS    YYZ    RV     
Y87562                             B738                 ADSB   B-1391 HET    SZX    Y8     
FD858                              PC12                 ADSB   VH-FVA                      
QR446                              A320                 ADSB   A7-LAF DOH    BSR    QR     
FR3701                             B738                 ADSB   EI-EFZ EMA    FUE    FR     
EK203                              A388                 ADSB   A6-EUF DXB    JFK    EK     
DL68                               B763                 ESTI   N197DN NRT    PDX    DL     
EDV3414                            CRJ9                 MLAT   N308PQ ROC    DTW           
FX1186                             B752                 ADSB   N978FD AFW    SEA    FX     
FX1502                             B752                 ASDI   N784FD FWA    SBN    FX     
EY68                               A321                 ADSB   A6-AEF DME    AUH    EY     
7C1305                             B738                 ADSB   HL8263 KIX    ICN    7C     
MU5410                             A321                 ADSB   B-8652 CTU    SHA    MU     
ADB258F                            A124                 ADSB   UR-82008                     
GAF102                             A400                 ADSB   54+09                       
5X6744                             B752                 ADSB   N404UP SDF    YYC    5X     
UT366                              B735                 ADSB   VP-BXU UFA    VKO    UT     
HX9366                             A332                 ADSB   B-LNZ  TSN    HKG    HX     
6E55                               A320                 ADSB   VT-IAP IXC    DXB    6E     
GB518                              B762                 ESTI   N783AX CVG    IAH    GB     
K49218                             B763                 ADSB   N762CK               K4     
NH180                              B788                 OCEA   JA820A NRT    MEX    NH     
UA1087                             A319                 MLAT   N818UA CLT    EWR    UA     
SU2347                             A321                 ADSB   VP-BEE HAM    SVO    SU     
IBE33YP                            A320                 ADSB   EC-LUL MAD    ARN    IB     
UA855                              B763                 ASDI   N664UA LIM    IAH    UA     
FZ711                              B738                 ADSB   A6-FDR DXB    TBS    FZ     
CM112                              B738                 ESTI   HP-1829CMPSCL    PTY    CM     
N203DS                             DA40                 ASDI   N203DS ROC    K9D4          
BK2838                             B738                 ESTI   B-5181 CGO    NNG    BK     
TK2654                             A321                 ADSB   TC-JRC IST    ERC    TK     
CX198                              B77W                 ADSB   B-KQE  AKL    HKG    CX     
OZ222                              B772                 ESTI   HL8284 ICN    JFK    OZ     
ETD18R                             A320                 ESTI   A6-EIG AUH    BLR    EY     
ME405                              A320                 ADSB   OD-MRM KWI    BEY    ME     
B7187                              A333                 ADSB   B-16333TPE    SZX    BR     
N280CC                             G280                 ADSB   N280CC CLU    SLW           
JL8                                B789                 ESTI   JA864J NRT    BOS    JL     
DL54                               A332                 ESTI   N858NW ATL    LOS    DL     
VY6001                             A319                 ADSB   EC-MKX BCN    FLR    VY     
TK1822                             A333                 ADSB   TC-LOA CDG    IST    TK     
BC157                              B738                 ADSB   JA73NK SDJ    UKB    BC     
N686FR                             BE58                 ASDI   N686FR KHAO   LYH           
QF25                               B744                 ADSB   VH-OEB SYD    HND    QF     
LH442                              A333                 ADSB   D-AIKO FRA    DTW    LH     
TN0981                             A30B                 ADSB   XA-FPP               TN     
ZH9624                             A320                 ADSB   B-6722 HRB    SZX    ZH     
WN1031                             B737                 MLAT   N213WN STL    HOU    WN     
BLOCKED                            A343                 ADSB   BLOCKED                     
QR944                              A359                 ADSB   A7-ALE DOH    SIN    QR     
WN1687                             B737                 ADSB   N7738A OMA    MDW    WN     
RC471                              A319                 ADSB   OY-RCG BLL    FAE    RC     
TK72                               B77W                 ESTI   TC-JJL IST    CAN    TK     
U26253                             A320                 ESTI   G-EZWI BRS    LIS    U2     
QK530                              DH8D                 ASDI          YQT    YYZ    QK     
BY2471                             B738                 ADSB   G-FDZE AGP    MAN    BY     
LX1104                             BCS1                 ADSB   HB-JBD ZRH    MUC    LX     
9W832                              B738                 ESTI   VT-JGV DEL    MAA    9W     
UK714                              A320                 ADSB   VT-TTJ SXR    DEL    UK     
RU481                              B748                 ADSB   VQ-BVR SVO    LHR    RU     
MF8094                             B738                 ADSB   B-7825 YNZ    XMN    MF     
JQ958                              A320                 ADSB   VH-VGF SYD    CNS    JQ     
JU512                              A319                 ADSB   YU-APA BEG    ATH    JU     
CGMFC                                                   ASDI   CGMFC                       
N114BH                             C340                 ASDI   N114BH APC    BOI           
5J970                              A333                 ADSB   RP-C3345DVO    MNL    5J     
NK8601                             A321                 ADSB   N663NK DTW    CLE    NK     
BEE3LW                             E195                 MLAT   G-FBEL               BE     
WS3429                             DH8D                 ASDI   C-GPWE YYT    YHZ    WR     
SK1633                             CRJ9                 ADSB   EI-FPC ARN    STR    SK     
SU2030                             A320                 ADSB   VP-BKC SVO    BUD    SU     
UA389                              B738                 MLAT   N16234 BOS    IAD    UA     
3U8841                             A319                 ADSB   B-6455 CTU    URC    3U     
JJ8114                             B763                 ADSB   PT-MSW GRU    BCN    JJ     
FX1517                             A306                 ADSB   N663FE MEM    LRD    FX     
HO1130                             A321                 ADSB   B-8459 SYX    SHA    HO     
BA278                              B789                 ADSB   G-ZBKF SJC    LHR    BA     
PR105                              B77W                 OCEA   RP-C7776SFO    MNL    PR     
D7306                              A333                 ADSB   9M-XXT KUL    HGH    D7     
GA78                               B738                 ADSB   PK-GNF CGK    TKG    GA     
US5534                             CRJ9                 ADSB   N582NN GRR    CLT    US     
EK517                              B77W                 ADSB   A6-EPX DEL    DXB    EK     
UA869                              B77W                 ADSB   N2534U SFO    HKG    UA     
B62006                             A320                 ADSB   N657JB FLL    EWR    B6     
QR701                              B77W                 ESTI   A7-BEM DOH    JFK    QR     
PPKSL                              B429                 ADSB   PP-KSL                      
TG636                              B773                 ADSB   HS-TKE BKK    TPE    TG     
AK5234                             A320                 ADSB   9M-AFY KUL    KCH    AK     
NH829                              B788                 ESTI   JA823A NRT    BOM    NH     
FX1500                             A306                 ADSB   N733FD MEM    DSM    FX     
QR764                              B77W                 ADSB   A7-BAX YUL    DOH    QR     
N753JL                             C56X                 ASDI   N753JL MCO    KORL          
SQ1                                B77W                 ASDI   9V-SWA SFO    HKG    SQ     
N639SA                                                  ASDI   N639SA                      
                                   B738                 MLAT   N917AN                      
RJ117                              A320                 ADSB   JY-AYQ AMM    CDG    RJ     
DL73                               A333                 ESTI   N821NW AMS    ATL    DL     
BY278                              B752                 ADSB   G-OOBD MAN    BVC    BY     
AA1070                             B738                 ADSB   N920NN SEA    MIA    AA     
AI433                              A319                 ADSB   VT-SCL GAY    VNS    AI     
KE913                              B789                 ADSB   HL8083 ICN    MAD    KE     
                                   B752                 ADSB   4K-AZ11                     
SG2892                             DH8D                 MLAT   VT-SUH STV    GOI    SG     
SA188                              A319                 ADSB   ZS-SFK JNB    DAR    SA     
UA697                              B739                 ADSB   N37437 SFO    IAD    UA     
B6862                              A320                 OCEA   N565JB SJU    BOS    B6     
KM307                              A320                 ADSB   9H-AEP MUC    MLA    KM     
TP544                              E195                 ADSB   CS-TTW LIS    DUS    TP     
DIAMO12                            PC7                  MLAT   L-05                        
BY28                               B789                 ESTI   G-TUIK LGW    MBJ    BY     
EDV3957                            CRJ2                 ADSB   N8783E RDU    CVG           
QB1232                             RJ1H                 ADSB   EP-FQV MHD    MRX    QB     
QF12                               A388                 OCEA   VH-OJS LAX    SYD    QF     
5J5038                             A320                 ADSB   RP-C3243MNL    NGO    5J     
UA6                                B772                 ESTI   N78017 NRT    IAH    UA     
MQ3670                             E145                 ADSB   N667GB RDU    JFK    MQ     
BLOCKED                            G150                 ASDI   BLOCKEDKPTK   PIT           
AB258                              PC12                 ASDI          YQT    YXL           
AA2287                             MD83                 MLAT   N9622A STL    ORD    AA     
G32078                             B738                 ADSB   PR-GUI GIG    REC    G3     
FX21                               B77L                 ASDI   N853FD LGG    MEM    FX     
OO2958                             CRJ7                 ASDI          AZO    ORD    OO     
SQ879                              A333                 ESTI   9V-STU TPE    SIN    SQ     
KL601                              B744                 ESTI   PH-BFW AMS    LAX    KL     
AIB01DM                            ZZZZ                 ADSB   F-WWDM                      
FR7724                             B738                 ADSB   EI-GDM SVQ    LPA    FR     
RJ267                              B788                 ADSB   JY-BAA AMM    YUL    RJ     
UA588                              B739                 ADSB   N61886 TPA    ORD    UA     
DL575                              MD88                 MLAT   N944DL EWR    ATL    DL     
FR5578                             B738                 ADSB   EI-EBW ALC    EDI    FR     
IB3490                             A319                 ADSB   EC-JEI MAD    GVA    IB     
AA173                              B772                 ADSB   N798AN LHR    RDU    AA     
P4GMS                              GLEX                 ADSB   P4-GMS                      
LJ226                              B738                 ADSB   HL7558 FUK    ICN    LJ     
WN2024                             B737                 ASDI          ATL    MCO    WN     
EW4069                             A319                 ADSB   D-AGWF MUC    DTM    EW     
ZW3779                             CRJ2                 ASDI          SAV    ORD    ZW     
JT696                              B739                 ADSB   PK-LGK CGK    SUB    JT     
FM9221                             B738                 ESTI   B-5369 PVG    LHW    FM     
NK705                              A321                 ADSB   N680NK LGA    FLL    NK     
AF1367                             A318                 ADSB   F-GUGJ FLR    CDG    AF     
BM1803                             E135                 MLAT   G-RJXJ BRS    ABZ    BM     
G32176                             B738                 ESTI   PR-VBF GIG    FOR    G3     
ST3516                             A319                 ADSB   D-ASTF RLG    TFS    ST     
AZ2034                             E170                 ADSB   EI-RDE FCO    LIN    AZ     
MAL7051                            B752                 ADSB   C-FMAI YYC    YVR           
TK651                              A321                 ADSB   TC-JSF IST    ALG    TK     
TK108                              A333                 ADSB   TC-LNC IST    MED    TK     
CFSYT                                                   ASDI   CFSYT                       
A81326                             B190                 ASDI          CVG    AVP    A8     
N785WC                             BE20                 ASDI   N785WC VLD    CHS           
AM680                              B738                 ADSB   XA-AME MEX    YUL    AM     
ZX7338                             CRJ1                 ASDI   C-FWJI CMH    YYZ    ZX     
F91670                             A319                 ADSB   N948FR MCO    PHL    F9     
U28064                             A320                 ADSB   G-EZUR VCE    LGW    U2     
HA22                                                    OCEA          HNL    SEA    HA     
AA3771                             E170                 ADSB   N224NN MSN    ORD    MQ     
PR115                              A343                 OCEA   RP-C3435SFO    MNL    PR     
MQ3434                             E145                 ASDI          TOL    ORD    MQ     
3U8808                             A320                 ESTI   B-1886 XUZ    KMG    3U     
KE679                              A333                 ADSB   HL7702 ICN    HAN    KE     
6E485                              A320                 ADSB   VT-INY IXR    BLR    6E     
TK1921                             B739                 ADSB   TC-JYI IST    GVA    TK     
PR654                              A333                 ESTI   RP-C8782MNL    RUH    PR     
6E3645                             A320                 ADSB   VT-IEX GAU    DEL    6E     
CFG8AP                             B753                 ADSB   D-ABOI               DE     
RW3457                             E170                 MLAT   N636RW PIT    IAH    RW     
CA829                              A332                 OCEA   B-6533 PVG    SJC    CA     
IMADE                              EC45                 ADSB   I-MADE                      
EIN2CT                             A320                 ADSB   EI-DVG MRS    EDI    EI     
                                   B733                 ADSB   PR-SDQ                      
CSDVY0                             E35L                 ADSB   CS-DVY                      
S7905                              A321                 ADSB   VQ-BQK DME    EVN    S7     
TK1322                             A321                 ADSB   TC-JMJ BLQ    IST    TK     
BE7043                             DH8D                 ADSB   G-PRPG BHX    DUS    BE     
EI3323                             AT76                 ADSB   EI-FAX MAN    DUB    RE     
UT374                              B738                 ADSB   VQ-BJI MRV    VKO    UT     
AA2276                             B738                 ADSB   N870NN MCI    CLT    AA     
WG266                              B738                 ADSB   C-GQWM YOW    VRA    WG     
LS217                              B738                 ADSB   G-JZHJ LBA    ACE    LS     
                                   A321                 ADSB   N746AV                      
FD3568                             A320                 ADSB   HS-ABJ DMK    ROI    FD     
BEE8PK                             AT75                 MLAT   EI-REL               BE     
LX1736                             A321                 ADSB   HB-IOD ZRH    FCO    LX     
HBFVD                              PC12                 ADSB   HB-FVD                      
FR4675                             B738                 ADSB   EI-FRO BGY    OSR    FR     
VN385                              A359                 ADSB   VN-A886HND    HAN    VN     
SK4609                             B737                 ADSB   LN-TUK OSL    MAN    SK     
LH8396                             B77L                 ADSB   D-ALFA FRA    PEK    LH     
SQ961                              B773                 ADSB   9V-SYI CGK    SIN    SQ     
AC85                               B789                 ESTI   C-FPQB TLV    YYZ    AC     
HU7601                             B788                 ADSB   B-2730 PEK    SHA    HU     
DL2451                             B752                 ADSB   N692DL MCO    ATL    DL     
                                   AT75                 ADSB   PP-PTP                      
W64329                             A321                 ADSB   HA-LXL SOF    FRA    W6     
HU495                              A333                 ESTI   B-8117 PEK    SEA    HU     
WG8302                             C208                 ADSB   N963FE EWR    PBG    WG     
TK6306                             A332                 ADSB   TC-JOU MST    IST    TK     
EI583                              A320                 ADSB   EI-DES AGP    DUB    EI     
EK226                              A388                 ADSB   A6-EON SFO    DXB    EK     
FX57                               B763                 ASDI   N143FE MEM    BQN    FX     
SXL14                                                   ASDI                               
FR2018                             B738                 ADSB   EI-FRM ACE    MAD    FR     
FR7025                             B738                 ADSB   EI-DWT CIA    WMI    FR     
SK935                              A343                 ADSB   LN-RKG CPH    SFO    SK     
3U8088                             A20N                 ADSB   B-8680 KIX    CTU    3U     
DIWPS                              C25A                 ADSB   D-IWPS                      
TK183                              A332                 OCEA   TC-JNA IST    HAV    TK     
VN1829                             A321                 ADSB   VN-A601SGN    PQC    VN     
ZW3842                             CRJ2                 ASDI          LAN    ORD    ZW     
DE321                              B763                 ESTI   D-ABUT MLE    FRA    DE     
FR6318                             B738                 ADSB   EI-DPK CRL    MRS    FR     
FR9887                             B738                 ADSB   EI-FID ALC    LPL    FR     
TP339                              E190                 ESTI   CS-TPT LGW    LIS    TP     
                                                        ADSB                               
U6827                              A320                 ADSB   VQ-BAG KUF    TLV    U6     
AZ1756                             A319                 ADSB   EI-IML CTA    FCO    AZ     
TK7293                             B738                 ADSB   TC-JFG ASR    SAW    TK     
AA2391                             A319                 ADSB   N9029F DTW    MIA    AA     
DK2563                             A332                 ESTI   G-OMYT HKT    ARN    DK     
                                   B739                 ADSB   HS-LTU                      
LR624                              A321                 ESTI   N568TA SCL    LIM    LR     
FR8207                             B738                 ADSB   EI-DHF BUD    BRS    FR     
BWJ089                             GLF4                 ADSB   B-LWW                       
                                   BE9L                 ADSB   PR-CCF                      
ID7108                             A320                 ADSB   PK-LUY PDG    HLP    ID     
9W416                              B738                 ADSB   VT-JFE BLR    BOM    9W     
DY4074                             B738                 ADSB   LN-NID GOT    ARN    DY     
AT832                              B738                 ADSB   CN-ROJ CMN    BRU    AT     
MT1228                             A321                 ADSB   G-TCDM BFS    ACE    MT     
DK1349                             A321                 ADSB   OY-TCD LPA    HEL    DK     
N310SK                             C310                 ADSB   N310SK KLOU   KHZL          
US4849                             E145                 MLAT   N660CL YOW    PHL    US     
CZ6652                             A321                 ADSB   B-8676 CGQ    WUH    CZ     
FR4065                             B738                 ADSB   EI-FOY CTA    MAD    FR     
SN465                              A332                 ADSB   OO-SFT BRU    KGL    SN     
HBKCJ                              DR40                 ADSB   HB-KCJ                      
AI382                              A20N                 ESTI   VT-EXG DEL    SIN    AI     
MI755                              A320                 ADSB   9V-SLM HKT    SIN    MI     
BE4597                             E195                 ADSB   G-FBEM CWL    TXL    BE     
9C8931                             A320                 ESTI   B-6852 SHA    CAN    9C     
E45901                             B738                 ADSB   SP-ENR KTW    TFS    E4     
KQ211                              B738                 ADSB   5Y-CYB BOM    NBO    KQ     
9W946                              B738                 ADSB   VT-JFL DEL    ATQ    9W     
TG492                              B789                 ADSB   HS-TWA AKL    BKK    TG     
NH801                              B789                 ESTI   JA892A NRT    SIN    NH     
FB302                              E190                 ADSB   LZ-BUR PRG    SOF    FB     
FR2618                             B738                 ADSB   EI-EKY KUN    VDA    FR     
CV658                              B748                 ADSB   LX-VCB HKG    DFW    CV     
NL149                              A319                 ADSB   AP-BNK LHE    KHI    NL     
TK1854                             A333                 ADSB   TC-JNT BCN    IST    TK     
UA411                              B739                 ADSB   N39415 LAX    IAD    UA     
NZ289                              B789                 ESTI   ZK-NZF AKL    PVG    NZ     
EW9680                             A320                 ADSB   D-AEWM DUS    ATH    EW     
BA185                              B789                 ADSB   G-ZBKB LHR    EWR    BA     
QR743                              A359                 ADSB   A7-ALS DOH    BOS    QR     
WY204                              B739                 ESTI   A4O-BT BOM    MCT    WY     
SA8664                             RJ85                 ADSB   ZS-SYP MQP    CPT    SA     
D85757                             B738                 ADSB   EI-FJB TFN    BCN    D8     
O66344                             A20N                 ADSB   PR-OBI GRU    MCZ    O6     
U6299                              A320                 ADSB   VQ-BCY DME    SVX    U6     
BA2958                             A319                 ADSB   G-DBCA LGW    GLA    BA     
SV751                              A333                 ESTI   HZ-AQB TRV    JED    SV     
MU5260                             A320                 ESTI   B-9972 CAN    TNA    MU     
AC903                              B789                 ADSB   C-FNOG MCO    YVR    AC     
3K551                              A320                 ADSB   9V-JSL SIN    SGN    3K     
EQ550                              A332                 ASDI   HC-COH UIO    JFK    EQ     
GF942                              A320                 ADSB   A9C-AG LCA    BAH    GF     
PRLCX                              S76                  ADSB   PR-LCX                      
CX748                              B77W                 ESTI   B-KQX  JNB    HKG    CX     
WN1546                             B737                 MLAT   N788SA IND    LAS    WN     
TG408                              B773                 ADSB   HS-TKA SIN    BKK    TG     
DL2910                             B712                 MLAT   N923AT AVP    ATL    DL     
EK342                              A388                 ADSB   A6-EUP DXB    KUL    EK     
CZ306                              B77W                 ESTI   B-2007 AKL    CAN    CZ     
N124MW                             SF50                 ADSB   N124MW                      
SQ7396                             B744                 ADSB   9V-SFM SHJ    AMS    SQ     
SCW260L                            AT76                 ADSB   SE-MKB BMA    UME    TF     
IZ817                              E190                 ADSB   4X-EMC TLV    ETH    IZ     
KL1825                             B738                 ADSB   PH-BCA AMS    TXL    KL     
LX354                              BCS1                 ADSB   HB-JBC GVA    LHR    LX     
TP1685                             A321                 ADSB   CS-TJF LIS    FNC    TP     
LH715                              A359                 ADSB   D-AIXC HND    MUC    LH     
RSD036                             IL96                 ADSB   RA-96018                     
AA1556                             A321                 ADSB   N905AU LGA    DFW    AA     
UA861                              B788                 ADSB   N29907 IAD    GRU    UA     
EK751                              A388                 ADSB   A6-EEJ DXB    CMN    EK     
SU123                              A333                 ESTI   VQ-BEL JFK    SVO    SU     
LJ3                                B772                 ADSB   HL7743 ICN    BKK    LJ     
AI160                              B77W                 ADSB   VT-ALV PAE    DEL    AI     
AV10                               B788                 ADSB   N786AV BOG    MAD    AV     
UA149                              B772                 ADSB   N225UA EWR    GRU    UA     
YV6052                             CRJ7                 ASDI   N501MJ LGA    IAD    YV     
WIS380                             C310                 ASDI   N6832Y MQT    OSH           
PR656                              A333                 ESTI   RP-C8771MNL    AUH    PR     
SSM1                               GRND                 MLAT          SYD    ADL           
LX154                              A333                 ADSB   HB-JHC ZRH    BOM    LX     
OO4528                             CRJ9                 ADSB   N554CA MKE    DTW    OO     
SN3588                             A319                 ADSB   OO-SSN LYS    BRU    SN     
EK25                               B77W                 ADSB   A6-EPF DXB    GLA    EK     
AF226                              B77W                 ADSB   F-GZNH CDG    DEL    AF     
5Y601                              B748                 ADSB   N850GT HSV    LUX    5Y     
LH768                              B737                 ADSB   D-AWBB FRA    PNQ    LH     
QF2                                A388                 ESTI   VH-OQF DXB    SYD    QF     
QF7                                A388                 OCEA   VH-OQE SYD    DFW    QF     
EV4144                             E145                 ASDI          RIC    EWR    EV     
TK6309                             A332                 ADSB   TC-JDO IST    AMS    TK     
BC5209                             E170                 ADSB   N204SY               BC     
AC7160                             B763                 ASDI   C-FXCA HND    YYZ    AC     
AH1004                             A332                 ADSB   7T-VJZ ALG    ORY    AH     
BA143                              B744                 ADSB   G-CIVK LHR    DEL    BA     
AA290                              B738                 ADSB   N821NN BDL    MIA    AA     
F9243                              A319                 MLAT   N919FR IAH    DEN    F9     
JO713                              B737                 ADSB   OY-JTR VXO    TFS    JO     
BE1534                             DH8D                 MLAT   G-PRPI AMS    EXT    BE     
MH722                              B738                 ADSB   9M-MSE CGK    KUL    MH     
KL888                              B772                 ESTI   PH-BQI HKG    AMS    KL     
N371LL                             PC12                 ASDI   N371LL KRPD   ANE           
AA664                                                   OCEA          KOA    PHX    AA     
UL195                              A320                 ADSB   4R-MRE CMB    DEL    UL     
SU150                              A332                 ASDI   VP-BLY SVO    HAV    SU     
TS948                              B738                 ADSB   C-GTQG YUL    HAV    TS     
NZ7                                B77W                 OCEA   ZK-OKO SFO    AKL    NZ     
TG617                              A333                 ADSB   HS-TBA CNX    BKK    TG     
AA1776                             A321                 ADSB   N154UW PHL    DFW    AA     
                                   A319                 ADSB   VP-BHP                      
LI773                              AT46                 ADSB   V2-LIK DOM    BGI    LI     
WN2052                             B737                 ASDI          MKE    BNA    WN     
TO1301                             B738                 ADSB   F-GZHX RVN    ORY    TO     
RV1712                             B763                 ADSB   C-FIYE YYZ    PUJ    RV     
KE925                              A332                 ESTI   HL8276 ICN    AMS    KE     
HV5235                             B737                 ADSB   PH-XRB EIN    PRG    HV     
IW1896                             AT76                 ADSB   PK-WGQ BDO    SRG    IW     
FR130                              B738                 ADSB   EI-DWJ CGN    OPO    FR     
W64351                             A321                 ADSB   HA-LXH SOF    BGY    W6     
ZF9634                             B763                 ESTI   VP-BUY HKT    SVX    ZF     
SK2677                             A20N                 ADSB   LN-RGO ARN    TXL    SK     
AK5242                             A320                 ADSB   9M-AGA KUL    BTU    AK     
J9606                              A320                 ESTI   9K-CAM KWI    COK    J9     
                                   E190                 ADSB   PR-AZI                      
EY612                              A333                 ADSB   A6-AFF CMN    AUH    EY     
O66172                             A320                 ADSB   PR-OBB CGH    BSB    O6     
BLOCKED                            F2TH                 ASDI   BLOCKEDSJC    LRM           
DL9936                             A320                 ADSB   N345NW DTW    LGA    DL     
LS879                              B738                 ADSB   G-JZHD MAN    ALC    LS     
AS1060                                                  OCEA          HNL    LAX    AS     
IBE32HV                            A319                 ADSB   EC-LEI MAD    HAM    IB     
VN1187                             A321                 ADSB   VN-A361HPH    SGN    VN     
SU221                              A333                 ESTI   VQ-BCQ CAN    SVO    SU     
U21131                             A320                 ADSB   G-EZPD BSL    OPO    U2     
TO4121                             B738                 ADSB   F-HTVF MIR    ORY    TO     
                                   AT75                 ADSB   9N-AMF                      
GA984                              A333                 ADSB   PK-GPC BTJ    JED    GA     
AS150                              B739                 ADSB   N481AS ANC    LAX    AS     
FR4538                             B738                 ADSB   EI-DAK VLC    WMI    FR     
IX193                              B738                 ESTI   VT-AXI LKO    DXB    IX     
TK1977                             B738                 ADSB   TC-JZE IST    DUB    TK     
BC117                              B738                 ADSB   JA73NJ HND    UKB    BC     
AF1687                             A318                 ADSB   F-GUGF EDI    CDG    AF     
AA1782                             A319                 ADSB   N740UW PIT    PHL    AA     
DL2538                             MD88                 ASDI   N986DL CHA    ATL    DL     
IV306                              YK42                 ADSB   RA-42402DME    IJK    IV     
FR2600                             B738                 ADSB   EI-DHW RIX    SXF    FR     
I23830                             A321                 ADSB   EC-JEJ MAD    LPA    I2     
EV4257                             E145                 ASDI          MHT    EWR    EV     
AZ1287                             E170                 ADSB   EI-RDL LIN    NAP    AZ     
OS857                              A320                 ESTI   OE-LBS VIE    TLV    OS     
FR2765                             B738                 ADSB   EI-FRS POZ    MAD    FR     
SC4619                             B738                 ADSB   B-1731 TAO    ICN    SC     
CZ3606                             A320                 ADSB   B-6655 CGQ    CAN    CZ     
SU2100                             SU95                 ADSB   RA-89056SVO    RIX    SU     
B6728                              A320                 ASDI   N509JB MCO    EWR    B6     
FX1779                             B752                 ADSB   N993FD IND    PDX    FX     
EZY213E                            A320                 ADSB   G-EZUP               U2     
JJ9961                             B77W                 ADSB   PT-MUC               JJ     
K6699                              A320                 ADSB   XU-356 HKG    REP    K6     
CZ6962                             E190                 ADSB   B-3137 XUZ    INC    CZ     
BA939                              A319                 ADSB   G-EUOH DUS    LHR    BA     
GTH64                              CL60                 ADSB   N604PV SWF    EGE           
OO5109                             CRJ2                 ASDI          CMX    ORD    OO     
SK804                              B737                 ADSB   SE-REZ LHR    OSL    SK     
DL15                               B763                 ADSB   N173DZ FRA    ATL    DL     
G37658                             B738                 ADSB   PR-VBL EZE    GIG    G3     
0B146                              B735                 ADSB   YR-AMA CTA    OTP    0B     
FD568                              A320                 ESTI   HS-BBI DMK    HGH    FD     
FX1986                             B752                 ADSB   N782FD PIT    BNA    FX     
B6475                              A320                 ADSB   N630JB PVD    MCO    B6     
RS7567                             E75S                 ASDI   C-FXJC YQY    YYZ    KV     
DL43                               B763                 ESTI   N177DN BRU    JFK    DL     
FR3064                             B738                 ADSB   EI-FRL TFN    BCN    FR     
AEG911                             SF34                 ADSB   ES-LSB                      
WN1933                             B737                 ASDI          DTW    BNA    WN     
MS799                              A333                 ADSB   SU-GDV CAI    CDG    MS     
DL158                              A359                 ADSB   N502DN ICN    DTW    DL     
SN2038                             A319                 ADSB   OO-SSM BHX    BRU    SN     
QR241                              A320                 ADSB   A7-ADF DOH    SAW    QR     
DR6528                             B738                 ADSB   B-1598 LHW    WUH    DR     
N905LP                             GLF4                 ADSB   N905LP BED    SFO           
                                   E55P                 ADSB   PR-PLO                      
LH688                              A321                 ADSB   D-AIDD MUC    TLV    LH     
FR8367                             B738                 ADSB   EI-FZL BUD    MAD    FR     
9W308                              B739                 ADSB   VT-JGD DEL    BOM    9W     
AA2257                             B738                 ADSB   N306NY LAX    ORD    AA     
EK370                              B77W                 ESTI   A6-EBV DXB    BKK    EK     
MQ3559                             E145                 MLAT   N925AE ORF    LGA    MQ     
CM811                              B738                 ADSB   HP-1841CMPGRU    PTY    CM     
YV6239                             CRJ7                 MLAT   N511MJ MDT    IAD    YV     
FR4282                             B738                 ADSB   EI-DWF DUB    BTS    FR     
OU413                              A319                 ADSB   9A-CTL FRA    SPU    OU     
EW7195                             A320                 ADSB   D-AEWO OSL    HAM    EW     
DL1266                             MD88                 MLAT   N991DL BUF    ATL    DL     
KL959                              B737                 ADSB   PH-BGM AMS    NCL    KL     
FM9425                             B38M                 ADSB   B-1382 SHA    CKG    FM     
KLM24T                             B738                 ADSB   PH-BGA AMS    PRG    KL     
QG25                               A320                 ADSB   PK-GLS KNO    HLP    QG     
CA1340                             B77W                 ESTI   B-2089 CAN    PEK    CA     
9W305                              B738                 ADSB   VT-JFS BOM    DEL    9W     
AH1155                             B738                 ADSB   7T-VKN LYS    QSF    AH     
BY118                              B788                 ADSB   G-TUID MAN    PUJ    BY     
U62832                             A320                 ADSB   VP-BMT SIP    DME    U6     
MU2084                             A319                 ADSB   B-6431 CIF    TSN    MU     
FX1476                             B763                 ADSB   N151FE MEM    GEG    FX     
CX505                              B773                 ESTI   B-HNH  NRT    HKG    CX     
LU283                              A321                 ESTI   CC-BEN SCL    PUQ    LU     
FYG21M                             F900                 ADSB   OO-VMI                      
SU2344                             SU95                 ADSB   RA-89026SVO    DRS    SU     
ID7013                             A320                 ADSB   PK-LAR HLP    KNO    ID     
SEP503                             B738                 ADSB   AP-BNC ISB    KHI           
LS1401                             B738                 ADSB   G-JZBA STN    ACE    LS     
VY1265                             A321                 ADSB   EC-MLD BCN    ARN    VY     
AR1132                             A343                 ESTI   LV-FPU EZE    MAD    AR     
6E119                              A320                 ESTI   VT-IGK BLR    GAU    6E     
9C8949                             A320                 ADSB   B-6840 SHA    SZX    9C     
AF934                              A343                 ADSB   F-GLZK CDG    TNR    AF     
DEDGG                              C152                 ADSB   D-EDGG                      
GA606                              B738                 ADSB   PK-GFF CGK    MDC    GA     
OO4744                             CRJ2                 ASDI          SBN    DTW    OO     
AV86                               A332                 ADSB   N342AV GRU    BOG    AV     
AT934                              B738                 ADSB   CN-ROB CMN    NAP    AT     
U28446                             A320                 ADSB   G-EZUO TLL    LGW    U2     
TK2204                             A320                 ADSB   TC-JUK IST    KCM    TK     
AA113                              B772                 ESTI   N779AN BCN    MIA    AA     
IBK6YA                             B738                 ADSB   EI-FJJ TFS    ARN    D8     
KE471                              A333                 ADSB   HL7551 ICN    RGN    KE     
A3581                              A320                 ADSB   SX-DGD DME    SKG    A3     
LLX5743                            A320                 ADSB   D-ASPI SXF    RMF           
LO98                               B788                 ADSB   SP-LRC ICN    WAW    LO     
P5557                              B738                 ESTI   HP-1724CMPSDQ    PTY    P5     
IB6501                             A332                 ADSB   EC-MKI MAD    SDQ    IB     
EDV3496                            CRJ9                 ASDI          CVG    DTW           
SQ836                              B77W                 ESTI   9V-SNC SIN    PVG    SQ     
MH173                              B738                 ESTI   9M-MLU DEL    KUL    MH     
CA876                              A332                 ADSB   B-6130 CDG    PEK    CA     
O66372                             A20N                 ADSB   PR-OBD GRU    FOR    O6     
A3602                              A321                 ADSB   SX-DGA ATH    LHR    A3     
BA541                              A319                 ADSB   G-EUPJ BLQ    LHR    BA     
N424CP                             BE9T                 ASDI   N424CP KOGB   KNEW          
DL1373                             B737                 ADSB   N308DE PHL    DTW    DL     
QG825                              A320                 ADSB   PK-GQR BDO    SUB    QG     
EK109                              B77W                 ADSB   A6-ECA LCA    MLA    EK     
W81574                             B722                 ASDI          YHM    YOW    W8     
RS7622                             E75S                 ASDI   C-FUJA YYZ    BOS    RS     
AA1657                             B752                 ADSB   N206UW PHL    PHX    AA     
BLOCKED                            GLF4                 ADSB   BLOCKED                     
LX728                              A320                 ADSB   HB-IJE ZRH    AMS    LX     
AD2644                             AT76                 ADSB   PR-AQL REC    MCZ    AD     
DY4548                             B738                 ADSB   LN-NHD RIX    ARN    DY     
DL1791                             B712                 ASDI          CAE    ATL    DL     
GA980                              B77W                 ESTI   PK-GIE CGK    JED    GA     
JJ4599                             A319                 ADSB   PT-TMO CNF    VIX    JJ     
UO1845                             A321                 ADSB   B-LED  KIX    HKG    UO     
LH8456                             MD11                 ADSB   D-ALCE FRA    KWI    LH     
EDV3671                            CRJ9                 ADSB   N349PQ LGA    CVG           
MU2260                             A320                 ADSB   B-2375 XIY    CAN    MU     
FR8627                             B738                 ADSB   EI-DWI FUE    NRN    FR     
NH659                              B763                 ADSB   JA8342 HND    OKJ    NH     
FD621                              PC12                 ADSB   VH-OWY                      
WN594                              B737                 ASDI   N7814B CMH    RSW    WN     
EW2861                             A319                 ADSB   D-AGWS NAP    STR    EW     
OZ601                              A388                 ADSB   HL7641 ICN    SYD    OZ     
RW4628                             E75S                 ASDI   N115HQ BTV    PHL    RW     
8C3750                             B762                 ASDI          SMF    RFD    8C     
CZ328                              A388                 ASDI   B-6137 LAX    CAN    CZ     
ZH9212                             A319                 ADSB   B-8798 XIY    SZX    ZH     
BA697                              A320                 ADSB   G-EUUZ VIE    LHR    BA     
CFGCP                              DH8A                 ASDI   CFGCP  YHU    YQB           
N700VR                             B58T                 ADSB   N700VR KVDF   KFMY          
RW3431                             E75L                 ADSB   N749YX CMH    ORD    RW     
SWR119D                            DH8D                 ADSB   OE-LGP ZRH    KRK    LX     
BLOCKED                            B190                 ASDI   BLOCKEDGON    IAD           
CHI51                              S92                  ASDI          YYT                  
WN366                              B737                 ASDI          MCO    BNA    WN     
DL1810                             B712                 ASDI          PIT    MSP    DL     
A81324                             SW4                  ASDI          BUF    BGM    A8     
KA110                              A333                 ADSB   B-LAB  HKG    DAC    KA     
CNS5                               PC12                 ASDI          KSPA   PDK           
BB3500                             SF34                 ASDI          SJU    STT    BB     
XT852                              A333                 ADSB   PK-XRC DPS    KUL    XT     
WN102                              B737                 ASDI          MSP    DEN    WN     
UA862                              B77W                 OCEA   N2639U HKG    SFO    UA     
UA863                              B789                 OCEA   N27958 SFO    SYD    UA     
US5003                             E145                 ADSB   N641AE BOS    ROC    US     
EK725                              B77W                 ADSB   A6-ENX DXB    DAR    EK     
CA1539                             A333                 ADSB   B-6525 PEK    WNZ    CA     
WN753                              B737                 ADSB   N496WN DCA    MDW    WN     
DPJ417                             C25A                 ASDI          FLL    CAE           
BG85                               B738                 ADSB   S2-AHO SIN    DAC    BG     
EU2286                             A320                 ADSB   B-8878 TYN    SHE    EU     
GA612                              A332                 ADSB   PK-GPQ CGK    UPG    GA     
UNC83U                             EC35                 ADSB   OY-HJG                      
PRGMD                              B429                 ADSB   PR-GMD                      
MF8092                             B738                 ADSB   B-5301 DLC    NGB    MF     
BA2169                             B772                 ESTI   G-VIIV LGW    FLL    BA     
DK1454                             A321                 ADSB   OY-TCG MMX    LPA    DK     
B61990                             A320                 OCEA   N662JB SJU    EWR    B6     
WN237                              B737                 ADSB   N7717D RIC    ATL    WN     
OZ211                              A359                 ASDI   HL7578 SFO    ICN    OZ     
UA726                              B752                 ADSB   N18112 SFO    EWR    UA     
FR2315                             B738                 ADSB   EI-DPY BTS    STN    FR     
MH2747                             B738                 ADSB   9M-MXR BTU    KUL    MH     
DEAIY                              A210                 ADSB   D-EAIY                      
SW716                              A319                 ADSB   V5-ANN WVB    WDH    SW     
LX1370                             DH8D                 ADSB   OE-LGR ZRH    KRK    LX     
VY3941                             A320                 ADSB   EC-LOB SVQ    PMI    VY     
SN3289                             A320                 ADSB   OO-SNA BRU    TLV    SN     
LA755                              A320                 ADSB   CC-BFH SCL    FLN    LA     
TK1895                             A321                 ADSB   TC-JSM IST    MXP    TK     
AK1724                             A320                 ADSB   9M-AQF SIN    PEN    AK     
U22564                             A320                 ADSB   G-EZUK TLV    MXP    U2     
S734                               A320                 ADSB   VQ-BDE KUF    DME    S7     
LH8225                             MD11                 ADSB   D-ALCK DFW    FRA    LH     
CCQH8729                            A320                 ADSB   B-1814               9C     
DL738                              B712                 ADSB   N991AT BOS    CVG    DL     
LG3761                             B738                 ADSB   LX-LBB LUX    OPO    LG     
DL1175                             MD88                 ASDI          AGS    ATL    DL     
UA1084                             A320                 ASDI          MSY    IAH    UA     
CX884                              B77W                 OCEA   B-KPH  HKG    LAX    CX     
WN446                              B738                 ADSB   N8659D BWI    DAL    WN     
AA199                              B763                 ESTI   N381AN MXP    JFK    AA     
PC1011                             A20N                 ADSB   TC-NBI SAW    CGN    PC     
EY77                               A332                 ADSB   A6-EYE AUH    AMS    EY     
DLH6UP                             A319                 ADSB   D-AIBC ARN    MUC    LH     
BE2104                             DH8D                 MLAT   G-JEDM LHR    EDI    BE     
LH14                               A320                 ADSB   D-AIUI FRA    HAM    LH     
AIB28TE                            A339                 ADSB   F-WTTE                      
FZ572                              B738                 ADSB   A6-FGA KTM    DXB    FZ     
AA4431                             E75L                 ASDI   N417YX MIA    LGA    RW     
PS172                              B738                 ADSB   UR-PSP ARN    KBP    PS     
LH2564                             A320                 ADSB   D-AIPF MUC    LED    LH     
LH480                              A333                 ADSB   D-AIKE MUC    DEN    LH     
DS1484                             A320                 ADSB   HB-JYA PRN    GVA    DS     
CZ3679                             A320                 ADSB   B-9930 PVG    ZUH    CZ     
OK760                              A319                 ADSB   OK-PET PRG    CDG    OK     
QR1141                             A320                 ADSB   A7-LAG SLL    DOH    QR     
SJ260                              B738                 ADSB   PK-CRC CGK    DPS    SJ     
EY51                               A333                 ADSB   A6-AFC AUH    GVA    EY     
FX5392                             MD11                 ADSB   N613FE CDG    EWR    FX     
QT821                              A332                 ESTI   N332QT MIA    UIO    QT     
FR6229                             B738                 ADSB   EI-EVY TFS    NRN    FR     
DP819                              B738                 ADSB   VP-BPS VKO    CGN    DP     
BE1034                             DH8D                 MLAT   G-ECOK ABZ    MAN    BE     
SQ215                              A333                 ADSB   9V-SSH SIN    PER    SQ     
N67CL                              B06                  ADSB   N67CL                       
OZ247                              B744                 ADSB   HL7620 ATL    ANC    OZ     
OZ1065                             A333                 ADSB   HL7741 GMP    HND    OZ     
AA2159                             E190                 ASDI   N953UW BOS    DCA    AA     
PGT78N                             A320                 ADSB   TC-DCM AMS    SAW    PC     
DL2686                             B712                 ASDI   N970AT LGA    BOS    DL     
UA3551                             E170                 MLAT   N858RW MCI    ORD    RW     
U21932                             A320                 ADSB   OE-IVT SOF    MAN    U2     
HBIAW                              F2TH                 ADSB   HB-IAW                      
AF7725                             A321                 ADSB   F-GTAZ NTE    CDG    AF     
SN205                              A333                 ADSB   OO-SFM BRU    DSS    SN     
FR2105                             B738                 ADSB   EI-FZO CRL    TLS    FR     
TR13                               B789                 ADSB   9V-OJF SYD    SIN    TR     
S71155                             A319                 ADSB   VP-BTP DME    ROV    S7     
9W231                              B77W                 ADSB   VT-JEX AMS    BOM    9W     
FX1506                             B752                 ASDI   N985FD MEM    GSP    FX     
A3827                              A320                 ADSB   SX-DGE ZRH    ATH    A3     
CHX4                               EC35                 MLAT   D-HZSG                      
HU7135                             B789                 ADSB   B-7667 PEK    CSX    HU     
SS926                              B744                 ADSB   F-HSUN ORY    PTP    SS     
IB6585                             A346                 ADSB   EC-KZI MAD    BOG    IB     
KAP291                             C402                 ADSB   N1376G BOS    RUT           
LJ204                              B738                 ADSB   HL7798 NRT    ICN    LJ     
ID6516                             B738                 ADSB   PK-LBS CGK    DPS    ID     
SV588                              B77W                 ADSB   HZ-AK36JED    DXB    SV     
MF867                              B738                 ADSB   B-1706 XMN    CGK    MF     
TK1957                             A321                 ADSB   TC-JSH IST    AMS    TK     
FX1537                             A306                 ADSB   N751FD MEM    HRL    FX     
UA551                              B737                 MLAT   N27722 DCA    IAH    UA     
EDV3380                            CRJ2                 ASDI          VLD    ATL           
WN1718                             B737                 MLAT   N490WN CHS    MDW    WN     
HU470                              B789                 ASDI   B-6998 LAX    CTU    HU     
BA198                              B77W                 ESTI   G-STBE BOM    LHR    BA     
AS146                              B739                 ASDI   N493AS ANC    SEA    AS     
IB8316                             AT76                 ADSB   EC-LRU MAD    EAS    YW     
HA29                               A332                 OCEA   N386HA SEA    OGG    HA     
SK1624                             CRJ9                 ADSB   EI-FPI DUS    ARN    SK     
W5107                              A343                 ADSB   EP-MMC CDG    IKA    W5     
BLOCKED                            B350                 ADSB   BLOCKEDTTN    KPSF          
CI169                              B738                 ESTI   B-18651FSZ    TPE    CI     
BR31                               B77W                 ASDI   B-16718JFK    TPE    BR     
CI5107                             B744                 OCEA   B-18712SFO    TPE    CI     
TK382                              A321                 ESTI   TC-JMH IST    TBS    TK     
RV1830                                                  OCEA          HNL    YVR    RV     
NZ90                               B789                 ESTI   ZK-NZC NRT    AKL    NZ     
QR740                              B77L                 ADSB   A7-BBE LAX    DOH    QR     
5X2789                             A306                 ADSB   N166UP IAH    SAT    5X     
5X988                              B763                 ADSB   N303UP RFD    BFI    5X     
QF75                               B744                 ESTI   VH-OEI SYD    YVR    QF     
SG415                              B738                 ADSB   VT-SLH ATQ    BOM    SG     
BY680                              B738                 ADSB   G-TAWI LGW    AGA    BY     
EDV3413                            CRJ9                 MLAT   N136EV CLT    MSP           
ZX7285                             B190                 ASDI          SYR    YYZ    ZX     
FT3051                             B738                 ADSB   SU-TMJ SSH    HAJ    FT     
B6162                              A320                 ADSB   N807JB SMF    JFK    B6     
KL1364                             B737                 ADSB   PH-BGQ WAW    AMS    KL     
AK122                              A320                 ADSB   9M-AGG KUL    SZX    AK     
LH2118                             A321                 ADSB   D-AIDC MUC    NCE    LH     
IBE32SV                            A320                 ESTI   EC-ILS FCO    MAD    IB     
6E176                              A20N                 ADSB   VT-IVD DEL    VNS    6E     
WG340                              B738                 ADSB   C-GSWL YHZ    SNU    WG     
LU271                              A320                 ADSB   CC-BFC SCL    BBA    LU     
GH179                              B738                 ADSB   VP-BUL DME    OVB    GH     
G8336                              A320                 ADSB   VT-GOJ BOM    COK    G8     
DEWSC                              B36T                 MLAT   D-EWSC                      
MQ3591                             E170                 ADSB   N245NN AMA    DFW    MQ     
NH921                              B763                 ADSB   JA621A NRT    PVG    NH     
NH867                              B789                 ADSB   JA893A HND    GMP    NH     
TK1469                             A319                 ADSB   TC-JLZ IST    OZH    TK     
EY21                               A332                 ADSB   A6-EYT AUH    MAN    EY     
BA274                              B744                 ESTI   G-BNLK LAS    LHR    BA     
AM96                               B788                 ESTI   N961AM TIJ    PVG    AM     
PK781                              B77L                 ADSB   AP-BGY ISB    YYZ    PK     
AA1905                             A321                 ADSB   N973UY LAX    CLT    AA     
RIX402                             BE30                 ASDI          ACK    HYA           
ON2                                B733                 ESTI   VH-YNU BNE    HIR    ON     
SV44                               B77W                 ESTI   HZ-AK43LAX    JED    SV     
QG781                              A320                 ADSB   PK-GQO JOG    KNO    QG     
FR5152                             B738                 ADSB   EI-EMR MRS    RAK    FR     
HU7081                             B788                 ADSB   B-2729 HAK    PEK    HU     
UO817                              A20N                 ADSB   B-LCM  NRT    HKG    UO     
AM697                              B738                 ESTI   N860AM YVR    MEX    AM     
DL950                              MD88                 ASDI   N952DL SYR    DTW    DL     
BLOCKED                            BE9L                 ADSB   BLOCKEDWRL    KGXY          
YBS                                DA42                 ADSB   VH-YBS                      
FR5202                             B738                 ADSB   EI-EVT SXF    SVQ    FR     
AH1137                             B738                 ADSB   7T-VJL MRS    CFK    AH     
ZX7310                             CRJ2                 ASDI          IND    YYZ    ZX     
XZ701                              F70                  ADSB   ZS-SKA JNB    WVB    XZ     
ASV753                             A321                 ADSB   HL7212 NRT    ICN           
GB2207                             B763                 ESTI   N317CM LAX    SJO    GB     
SPECS                              S22T                 ADSB   SP-ECS                      
AR1502                             B38M                 ADSB   LV-GVD AEP    COR    AR     
CZ6310                             A20N                 ADSB   B-8965 SZX    SHE    CZ     
U24025                             A320                 ADSB   G-EZRA ORY    TLS    U2     
UA1877                             A320                 ASDI   N460UA TPA    EWR    UA     
IT323                              A320                 ADSB   B-50003KHH    MFM    IT     
VN705                              A321                 ESTI   VN-A615CGO    CXR    VN     
DD6372                             B738                 ADSB   HS-DBS UTP    BAV    DD     
IK800                              A148                 ADSB   RA-61714              IK     
DL1644                             B712                 ASDI          ATW    ATL    DL     
KL1129                             E190                 ADSB   PH-EXE AMS    CPH    KL     
AF1517                             E170                 MLAT   F-HBXH GOA    CDG    AF     
CX890                              A359                 ADSB   B-LRT  HKG    EWR    CX     
QR707                              B77W                 ADSB   A7-BEO DOH    IAD    QR     
TK12                               B77W                 ADSB   TC-JJZ JFK    IST    TK     
WW811                              A321                 ADSB   TF-WIN LGW    KEF    WW     
LX1822                             BCS3                 ADSB   HB-JCC GVA    ATH    LX     
WN768                              B737                 ASDI          EWR    FLL    WN     
MS777                              B77W                 ADSB   SU-GDM CAI    LHR    MS     
WY246                              B738                 ESTI   A4O-BW DEL    MCT    WY     
UT822                              B735                 ADSB   VP-BVL VIE    VKO    UT     
JT614                              B38M                 ADSB   PK-LQK CGK    PGK    JT     
CZ3041                             A333                 ADSB   B-6087 WUH    DXB    CZ     
ID6375                             A320                 ADSB   PK-LAU JOG    CGK    ID     
SU291                              B77W                 ESTI   VQ-BQM HAN    SVO    SU     
DL2518                             B712                 ASDI   N965AT CHO    ATL    DL     
ZH9811                             B738                 ADSB   B-5617 SZX    WUX    ZH     
B62784                             E190                 MLAT   N249JB RDU    BOS    B6     
CZ3122                             A332                 ADSB   B-6548 PEK    CAN    CZ     
BA457                              B763                 ADSB   G-BNWB MAD    LHR    BA     
QR8156                             B77L                 ADSB   A7-BFB LUX    DOH    QR     
O66153                             A20N                 ADSB   PR-OBF GIG    GRU    O6     
EW7762                             A320                 ADSB   D-AEWU HAM    ZRH    EW     
CZ387                              B738                 ADSB   B-1916 CAN    CGK    CZ     
UK944                              A320                 ADSB   VT-TTI BOM    DEL    UK     
FR4904                             B738                 ADSB   EI-EPA FCO    PMO    FR     
EDV3321                            CRJ2                 ASDI   N8836A EWN    ATL           
NO438                              B789                 ESTI   EI-NEO MXP    CUN    NO     
MF8419                             B738                 ADSB   B-5658 FOC    KOW    MF     
DK624                              A333                 ESTI   OY-VKH ARN    SID    DK     
BLOCKED                            C56X                 ADSB   BLOCKEDCLT    IND           
DL2480                             B712                 ASDI          IND    DTW    DL     
SN2174                             A319                 ADSB   OO-SSS MAN    BRU    SN     
CI162                              B77W                 ADSB   B-18001TPE    ICN    CI     
9S98                               B77L                 ESTI   N778LA LEJ    HKG    9S     
VQBZB                              GLEX                 ADSB   VQ-BZB                      
DL2575                             MD88                 ASDI          CHS    ATL    DL     
PR528                              A321                 ADSB   RP-C9905KUL    MNL    PR     
JJ3325                             A321                 ADSB   PT-XPQ FOR    GRU    JJ     
AY92                               A333                 ADSB   OH-LTP CKG    HEL    AY     
QR703                              A359                 ADSB   A7-ALQ DOH    JFK    QR     
DL101                              A333                 ADSB   N826NW ATL    EZE    DL     
AZ437                              A319                 ADSB   EI-IMW MUC    FCO    AZ     
EI3223                             AT76                 ADSB   EI-FAS GLA    DUB    RE     
UO56                               A320                 ESTI   B-LCI  HKG    NGO    UO     
TP119                              A332                 ADSB   CS-TON LIS    POA    TP     
BM1772                             E145                 MLAT   G-RJXH LUZ    MUC    BM     
TK1968                             B738                 ADSB   TC-JVC BHX    IST    TK     
JL2506                             B738                 ADSB   JA340J CTS    KIX    JL     
TK7123                             B738                 ADSB   TC-JFH GZT    ESB    TK     
LS1656                             B738                 ADSB   G-JZHY SZG    STN    LS     
OZ625                              B763                 ADSB   HL7515 ICN    SPN    OZ     
GA193                              B738                 ADSB   PK-GMI KNO    CGK    GA     
AK719                              A320                 ADSB   9M-AQD KUL    SIN    AK     
                                   P68                  ADSB   OY-MLS                      
TK6494                             B77W                 ADSB   TC-LJL FRU    ICN    TK     
BR812                              A321                 ADSB   B-16210MFM    TPE    BR     
EW493                              A319                 ADSB   D-AGWD SJJ    CGN    EW     
SKQ31                              PC12                 ASDI          TYS    BHM           
RW5989                             E170                 ADSB   N205JQ CMH    LGA    RW     
CA907                              B789                 ESTI   B-1591 MAD    GRU    CA     
RS7538                             E170                 MLAT   C-FRQN YYZ    YQX    RS     
W61305                             A321                 ADSB   HA-LXS WAW    LTN    W6     
LJ218                              B738                 ADSB   HL8014 KIX    PUS    LJ     
EDV3805                            CRJ9                 ADSB   N920XJ CMH    RDU           
ID6006                             B739                 ESTI   PK-LBG PER    DPS    ID     
TK1422                             B738                 ADSB   TC-JVU TLL    IST    TK     
BLOCKED                            S92                  ADSB   BLOCKED                     
BR137                              A321                 ADSB   B-16225HKD    TPE    BR     
QR1395                             B788                 ESTI   A7-BCX DOH    CMN    QR     
SU275                              B77W                 ESTI   VQ-BQG HKT    SVO    SU     
QR266                              A320                 ADSB   A7-AHL LCA    DOH    QR     
KK2075                             B738                 ADSB   TC-SNT IST    DUS    KK     
UK884                              A320                 ADSB   VT-TTK GOI    DEL    UK     
QR650                              A320                 ESTI   A7-AHE DOH    KTM    QR     
WN1065                             B737                 ASDI          PBI    ISP    WN     
RO226                              A318                 ADSB   YR-ASD PRG    OTP    RO     
FR654                              B738                 ADSB   EI-EFJ TFS    PIK    FR     
FM834                              B738                 ESTI   B-1900 BKK    PVG    FM     
UA273                              B737                 ADSB   N13750 RDU    IAH    UA     
PG164                              A319                 ADSB   HS-PPC USM    BKK    PG     
KL749                              B789                 ESTI   PH-BHH AMS    BOG    KL     
WE264                              A320                 ADSB   HS-TXU HDY    BKK    WE     
B78978                             AT76                 ADSB   B-17017HUN    TSA    B7     
W68145                             A320                 ADSB   HA-LPT KUN    SVG    W6     
UO626                              A321                 ADSB   B-LEC  HKG    ICN    UO     
CX331                              A333                 ADSB   B-LAI  PEK    HKG    CX     
ZE501                              B738                 ESTI   HL8231 ICN    BKI    ZE     
AME3126                                                 ADSB                               
SG468                              B738                 ADSB   VT-SZM TIR    HYD    SG     
SC4716                             B738                 ADSB   B-5592 SHE    TAO    SC     
WN1698                             B738                 ADSB   N8323C MCO    MSY    WN     
AD2713                             AT76                 ADSB   PR-AQS REC    AJU    AD     
3K513                              A320                 ADSB   9V-JSB SIN    BKK    3K     
AE7218                             E190                 ADSB   B-16821MXZ    RMQ    AE     
WY655                              E170                 ADSB   A4O-ED MCT    BAH    WY     
UA715                              A320                 MLAT   N481UA PWM    EWR    UA     
SU209                              B77W                 ESTI   VQ-BQC PVG    SVO    SU     
FR1875                             B738                 ADSB   EI-EVB NCE    STN    FR     
HY650                              A320                 ESTI   UK32012KZN    TAS    HY     
U23795                             A320                 ADSB   G-EZRH CDG    VCE    U2     
N111RF                             TBM7                 ADSB   N111RF KORL   SAT           
                                   E190                 ADSB   PR-AZD                      
FX65                               DC10                 ADSB   N307FE MEM    GDL    FX     
TS397                              A333                 ADSB   C-GKTS CDG    YUL    TS     
WN1651                             B737                 ASDI          RSW    MDW    WN     
NH176                              B77W                 OCEA   JA733A NRT    LAX    NH     
3U8530                             A320                 ESTI   B-1821 KMG    HGH    3U     
W585                               A310                 ADSB   EP-MNF VKO    IKA    W5     
WN1752                             B737                 ASDI          ATL    DAL    WN     
9W588                              B738                 ESTI   VT-JBX DEL    DXB    9W     
EV4339                             E45X                 ADSB   N11107 RIC    IAH    EV     
ZW3866                             CRJ2                 MLAT   N450AW SCE    IAD    ZW     
AA5260                             CRJ2                 MLAT   N230PS CAK    DCA    US     
OO2948                             CRJ7                 ASDI   N709SK SYR    ORD    OO     
FIN8RB                             AT76                 ADSB   SE-MKC UME    HEL    AY     
FV6892                             A319                 ADSB   VP-BQK SIP    LED    FV     
PHCCL                              DR40                 MLAT   PH-CCL                      
SV632                              A321                 ESTI   HZ-ASQ AMM    JED    SV     
HV6116                             B738                 ADSB   PH-HZO AGP    AMS    HV     
A3904                              A321                 ADSB   SX-DGS ATH    LCA    A3     
O66304                             A20N                 ADSB   PR-OBK GRU    REC    O6     
DL639                              A320                 ADSB   N325US DCA    ATL    DL     
AK5508                             A320                 ADSB   9M-AHS KBR    KCH    AK     
EK348                              B77W                 ESTI   A6-EGB CMB    SIN    EK     
KLM35F                             B739                 ADSB   PH-BXT AMS    ATH    KL     
VY8366                             A320                 ADSB   EC-LLJ AGP    AMS    VY     
U26040                             A320                 ADSB   OE-IVS PMI    BRS    U2     
QZ507                              A320                 ADSB   PK-AZI SIN    DPS    QZ     
OZ1035                             A333                 ADSB   HL7754 HND    GMP    OZ     
EK434                              A388                 ESTI   A6-EDN DXB    BNE    EK     
FX17                               B77L                 OCEA   N883FD ANC    PVG    FX     
ZH9388                             B738                 ADSB   B-1712 CGO    NNG    ZH     
PO213                              B748                 ADSB   N855GT CVG    NRT    PO     
LH954                              A20N                 ADSB   D-AINC FRA    BHX    LH     
DL2466                             MD88                 ASDI          ILM    ATL    DL     
HU7958                             A333                 ADSB   B-1022 TLV    PEK    HU     
CX260                              B77W                 ADSB   B-KQH  CDG    HKG    CX     
AR1249                             B738                 ADSB   LV-GUB GRU    AEP    AR     
KL281                              B789                 ESTI   PH-BHC AMS    SFO    KL     
TP1312                             A320                 ADSB   CS-TNL LIS    BUD    TP     
CX892                              A359                 ADSB   B-LRE  HKG    SFO    CX     
ZI786                              A320                 ADSB   F-HAAF               ZI     
8C3375                             B763                 ADSB   N395CM SEA    CVG    8C     
KFS77                              LJ35                 ASDI          SJU    YIP           
LX2824                             A319                 ADSB   HB-IPV ZRH    GVA    LX     
TA561                              A320                 ESTI   N499TA SFO    SAL    TA     
WN763                              B737                 ADSB   N7747C ROC    BWI    WN     
UAL142D                            B788                 OCEA   N20904 NRT    DEN    UA     
TR611                              A319                 ESTI   9V-TRB BKK    SIN    TR     
TK1938                             A321                 ADSB   TC-JSG BRU    IST    TK     
TB4569                             B737                 ADSB   OO-JOS NDR    EIN    TB     
                                   GRND                 ADSB                               
FD3008                             A320                 ADSB   HS-BBC HKT    DMK    FD     
AA2001                             A321                 ADSB   N523UW ORD    PHL    AA     
6E813                              A320                 ESTI   VT-IDE BOM    GAU    6E     
MHV20X                             F2TH                 ADSB   OE-HMR                      
N5949M                             C421                 ASDI   N5949M ACT    ABI           
RS7533                             E75S                 ASDI          PHL    YYZ    RS     
UA680                              B739                 ADSB   N37427 SFO    ORD    UA     
PC2591                             A320                 ADSB   TC-DCL KSY    SAW    PC     
VTRKH                              AT76                 ADSB   VT-RKH               9I     
SKZ1466                            SH36                 ASDI          SDF    TVC           
0B2946                             B734                 ADSB   YR-BAU CTA    BCM    0B     
5X974                              B763                 ADSB   N322UP SDF    PDX    5X     
BT682                              BCS3                 ADSB   YL-CSB BCN    RIX    BT     
QR3                                A388                 ADSB   A7-APC DOH    LHR    QR     
QR960                              A333                 ADSB   A7-AEI DOH    DPS    QR     
PC3706                             B738                 ADSB   TC-CPD ADA    TZX    PC     
MF882                              B738                 ADSB   B-5382 TSA    XMN    MF     
JL558                              B738                 ESTI   JA336J AKJ    HND    JL     
AA101                              B772                 ADSB   N754AN LHR    JFK    AA     
B61504                             A321                 ASDI   N974JT SJU    JFK    B6     
JJ3413                             A319                 ADSB   PR-MAL GIG    FLN    JJ     
SQ11                               B77W                 ESTI   9V-SWY NRT    SIN    SQ     
SL718                              B738                 ADSB   HS-LUU DMK    HDY    SL     
ZH9883                             B738                 ADSB   B-1755 SZX    HGH    ZH     
CX2097                             B748                 ADSB   N856GT LAX    HKG    CX     
FJ923                              B738                 ADSB   DQ-FJN NAN    BNE    FJ     
B8211                              FA7X                 ADSB   B-8211                      
NOL9318                            B738                 ADSB   HS-DBR                      
JD456                              A333                 ESTI   B-8679 MLE    PEK    JD     
9U171                              A320                 ADSB   ER-AXP KIV    DME    9U     
GA448                              B738                 ADSB   PK-GFQ SUB    KOE    GA     
DL87                               B763                 ESTI   N176DZ FRA    DTW    DL     
AK502                              A20N                 ADSB   9M-AGM KUL    RGN    AK     
SU2111                             A320                 ADSB   VP-BWE ATH    SVO    SU     
WW626                              A320                 ADSB   TF-SIS KEF    BCN    WW     
LH1811                             A321                 ADSB   D-AIRX BCN    MUC    LH     
DY3551                             B738                 ADSB   EI-FHA BUD    CPH    D8     
FR5159                             B738                 ADSB   EI-FIS NCL    AGP    FR     
B6838                              A321                 ESTI          BQN    JFK    B6     
                                   A139                 ADSB   ZS-HVJ                      
WIS101                             PAT4                 ASDI          FAR    BIS           
CA190                              A333                 ADSB   B-6511 TPE    PEK    CA     
EW182                              A332                 ADSB   D-AXGB CGN    MIA    EW     
AA2264                             B738                 ADSB   N826NN BOS    ORD    AA     
JD5787                             A320                 ADSB   B-6958 HGH    JHG    JD     
N10SE                              LJ40                 ADSB   N10SE  TEB    IAD           
0B1                                B735                 ADSB   YR-AMD OTP    MXP    0B     
TK1771                             B738                 ADSB   TC-JHV IST    PRG    TK     
N98SL                              SR22                 ADSB   N98SL                       
PTTIO                              C208                 ADSB   PT-TIO                      
CX382                              B77W                 ADSB   B-KPU  ZRH    HKG    CX     
RPN418                             B734                 ASDI          AEX    MIA           
DFAHH                              EGRT                 MLAT   D-FAHH                      
EK958                              B77W                 ADSB   A6-EPO BEY    DXB    EK     
                                   B772                 ADSB   JA007D                      
FX1571                             B752                 ASDI   N989FD MEM    MDT    FX     
A58200                             RJ85                 ADSB   G-JOTR               A5     
VS33                               A333                 ADSB   G-VGEM LGW    ANU    VS     
EDV3291                            CRJ9                 MLAT   N908XJ BTV    DTW           
FX140                              A306                 ADSB   N745FD MEM    YYC    FX     
NK417                              A321                 ADSB   N662NK DTW    FLL    NK     
US5246                             CRJ7                 ASDI          GNV    CLT    US     
OS2652                             A320                 ADSB   OE-LBJ               OS     
ME427                              A320                 ESTI   OD-MRN DXB    BEY    ME     
QK509                              DH8C                 ASDI          YQT    YWG    QK     
PC386                              A320                 ADSB   TC-DCJ SAW    DME    PC     
ZX7351                             CRJ2                 MLAT   C-GOJA BWI    YYZ    ZX     
PSC822                             JS32                 ASDI          YHU    YVO           
VJT592                             CL60                 ADSB   9H-VFB                      
BA38                               B789                 ADSB   G-ZBKI PEK    LHR    BA     
NC1891                             B712                 ADSB   VH-NXG KGI    PER    NC     
CI679                              A333                 ESTI   B-18311HKG    CGK    CI     
DEOIC                              P28A                 ADSB   D-EOIC                      
SV809                              B77W                 ADSB   HZ-AK15DAC    RUH    SV     
BLOCKED                            GLF5                 ADSB   BLOCKEDPHL    YYZ           
SE1448                             A332                 ADSB   F-GRSQ TLS    FDF    SE     
BY4464                             B738                 ADSB   G-TAWG LGW    SPC    BY     
FV6162                             B738                 ADSB   VQ-BVV MCX    VKO    FV     
BA367                              A320                 ADSB   G-EUUB MRS    LHR    BA     
DL477                              B764                 ADSB   N845MH BCN    JFK    DL     
BX8826                             A321                 ADSB   HL7761 PUS    GMP    BX     
GOJAG                              C172                 MLAT   G-OJAG                      
NH868                              B788                 ADSB   JA838A GMP    HND    NH     
VN659                              A321                 ADSB   VN-A604SGN    SIN    VN     
RD226                              SU95                 ADSB   RA-89075              RD     
X36254                             B738                 ADSB   D-ATYC STR    BVC    X3     
5X204                              MD11                 ADSB   N292UP CGN    PHL    5X     
LH543                              A343                 ADSB   D-AIFC BOG    FRA    LH     
RW5872                             E75S                 ASDI          LEX    DCA    RW     
KLM41R                             E190                 MLAT   PH-EZV GOT    AMS    KL     
AA1392                             A321                 ESTI   N932AM CUN    DFW    AA     
QR145                              A346                 ADSB   A7-AGD DOH    BCN    QR     
FR7033                             B738                 ADSB   EI-DWG FAO    DUB    FR     
FV5660                             B738                 ADSB   VP-BGQ SHJ    LED    FV     
GB845                              B762                 MLAT   N797AX CVG    SJU    GB     
BY7414                             B738                 ADSB   G-TAWH EMA    ACE    BY     
LH590                              A343                 ADSB   D-AIFA FRA    NBO    LH     
MU563                              A332                 ADSB   B-8972 PVG    DEL    MU     
HBCGI                              C172                 ADSB   HB-CGI                      
CA470                              B738                 ADSB   B-5390 TSA    CKG    CA     
LLP472D                            A320                 ADSB   SP-HAG WAW    TFS           
O66160                             A319                 ADSB   PR-AVB FLN    BSB    O6     
CA1328                             A332                 ADSB   B-6536 CAN    PEK    CA     
EY472                              A332                 ESTI   A6-EYO AUH    CGK    EY     
6E126                              A320                 ESTI   VT-IES DEL    BLR    6E     
B6254                              E190                 ASDI   N279JB DCA    BOS    B6     
CGQNJ                              BE20                 ASDI   CGQNJ  YQK    CKM8          
CZ3212                             B738                 ADSB   B-5596 XIY    CAN    CZ     
SN289                              A333                 ADSB   OO-SFO BRU    ACC    SN     
B61509                             A320                 ASDI   N648JB FLL    PAP    B6     
MF8015                             B737                 ADSB   B-5278 XMN    HKG    MF     
DL195                              B752                 ADSB   N711ZX LHR    PHL    DL     
VY8152                             A320                 ADSB   EC-MJB VLC    ORY    VY     
AA1862                             A321                 ADSB   N185UW BOS    CLT    AA     
AY1512                             A320                 ADSB   OH-LXM ZRH    HEL    AY     
JT619                              B738                 ADSB   PK-LKJ PGK    CGK    JT     
U21924                             A320                 ADSB   G-EZUA AGP    MAN    U2     
5Y3066                             B763                 ADSB   N1327A SKF    CVG    5Y     
D85922                             B738                 ADSB   EI-FVI LPA    CPH    D8     
FR3469                             B738                 ADSB   EI-EXF VNO    LTN    FR     
CO716                              A320                 ADSB   5B-DDC LCA    ATH    CO     
FR9977                             B738                 ADSB   EI-DAN BVA    PSA    FR     
LX1954                             A321                 ADSB   HB-ION ZRH    BCN    LX     
SU1232                             A320                 ADSB   VP-BAD SVO    UFA    SU     
NK672                              A319                 ADSB   N522NK MSY    FLL    NK     
7G55                               A320                 ADSB   JA22MC HND    FUK    7G     
EY88                               B789                 ADSB   A6-BLE MXP    AUH    EY     
0B5152                             B738                 ADSB   YR-BMC BHX    LCA    0B     
PRALU                              E55P                 ADSB   PR-ALU                      
GH216                              B738                 ADSB   VP-BQF RGK    DME    GH     
AI157                              B788                 ESTI   VT-ANA DEL    CPH    AI     
VPC2                               LJ60                 ADSB   ES-LVA                      
FX1754                             B763                 ASDI   N127FE IND    SAN    FX     
DL285                              B764                 ADSB   N844MH LHR    ATL    DL     
GA864                              B738                 ADSB   PK-GNA CGK    BKK    GA     
CI52                               A359                 ADSB   B-18905SYD    TPE    CI     
GF3                                A332                 ADSB   A9C-KB BAH    LHR    GF     
BA285                              B744                 ADSB   G-BYGG LHR    SFO    BA     
AP5362                             B738                 ADSB   EC-MUB               AP     
GS6566                             A320                 ADSB   B-6837 WUH    HAK    GS     
DK1318                             A321                 ADSB   OY-TCF HEL    TFS    DK     
CM833                              B738                 ASDI   HP-1849CMPJFK    PTY    CM     
UA949                              B772                 ADSB   N783UA LHR    SFO    UA     
EV5567                             CRJ9                 ASDI          JAX    DTW    EV     
UA1003                             B752                 ADSB   N34137 LAS    EWR    UA     
C28327                             AT72                 ASDI          LCK    IND    C2     
5X64                               B744                 ADSB   N576UP SDF    ANC    5X     
DIAMO14                            PC7                  MLAT   L-11                        
EV3990                             E145                 MLAT   N12552 LGA    CLE    EV     
                                   B737                 ADSB   N7708E                      
QF497                              A332                 ADSB   VH-EBC SYD    MEL    QF     
CI5255                             B744                 ESTI          ANC    TPE    CI     
6B645                              B738                 ADSB   SE-DZV               6B     
U28573                             A319                 ADSB   G-EZPG LGW    BCN    U2     
SU2406                             A321                 ADSB   VP-BDC SVO    FCO    SU     
N872DC                             CRJ7                 ADSB   N872DC MBS    KLBX          
ETD79E                             A321                 ESTI   A6-AEH AUH    AMD    EY     
EK85                               A388                 ADSB   A6-EDX DXB    ZRH    EK     
N77NY                              B407                 ADSB   N77NY                       
JL588                              B738                 ADSB   JA301J HKD    HND    JL     
LH1336                             A20N                 ADSB   D-AINB BUD    FRA    LH     
OOEFC                              SR22                 MLAT   OO-EFC                      
FX1717                             A306                 ADSB   N653FE IND    SEA    FX     
KZ110                              B748                 OCEA   JA13KZ NRT    LAX    KZ     
PC993                              A320                 ADSB   TC-DCH SAW    FRA    PC     
CI927                              A333                 ADSB   B-18315TPE    HKG    CI     
US5518                             CRJ7                 ASDI          DAY    ORD    US     
BLOCKED                            GLEX                 ADSB   BLOCKED                     
5J854                              A320                 ADSB   RP-C3260ZAM    MNL    5J     
GA114                              B738                 ADSB   PK-GNC CGK    PLM    GA     
WW853                              A321                 ESTI   TF-NOW LGW    KEF    WW     
VY3002                             A321                 ADSB   EC-MPV BCN    LPA    VY     
AA2102                             A319                 MLAT   N820AW PVD    CLT    AA     
IB3477                             A319                 ADSB   EC-JXJ ZRH    MAD    IB     
SU102                              A333                 ADSB   VQ-BMY SVO    JFK    SU     
AA4681                             E75S                 ASDI   N106HQ BUF    PHL    RW     
TVS77J                             C680                 MLAT   OK-EMA               QS     
BA949                              A319                 ADSB   G-EUPR MUC    LHR    BA     
CZ329                              B788                 ESTI   B-2733 CAN    YVR    CZ     
PC1135                             B738                 ADSB   TC-CPY SAW    ORY    PC     
KK2247                             A321                 ADSB   TC-ETM IST    AMS    KK     
CZ3067                             A319                 ADSB   B-6209 CAN    KTM    CZ     
N420EA                             HDJT                 ADSB   N420EA                      
AA3678                             E145                 ASDI          TLH    MIA    MQ     
JL786                              B763                 ADSB   JA620J NRT    HNL    JL     
W63525                             A320                 ADSB   HA-LWT TSR    EIN    W6     
SL8114                             B739                 ESTI   HS-LTR DMK    CGO    SL     
V32723                             F100                 ADSB   YR-FKA               V3     
PO238                              B748                 ADSB   N858GT ANC    LAX    PO     
RW4399                             E170                 ADSB   N401YX JAX    MIA    RW     
WN1787                             B738                 ADSB   N8660A MCO    DAL    WN     
QK498                              DH8D                 ASDI          YQG    YYZ    QK     
NK409                              A321                 ADSB   N678NK ORD    FLL    NK     
JJ8016                             A320                 ADSB   PR-TYG GRU    BOG    JJ     
                                   CRJ7                 ADSB   JA11RJ                      
FJI392                             A332                 OCEA   DQ-FJV HKG    NAN    FJ     
SQ807                              A388                 ADSB   9V-SKI PEK    SIN    SQ     
KL835                              B77W                 ADSB   PH-BVC SIN    DPS    KL     
BR12                               B77W                 ADSB   B-16710TPE    LAX    BR     
BY434                              B752                 ADSB   G-OOBC GLA    SID    BY     
JL729                              B763                 ESTI   JA616J NRT    CGK    JL     
EK31                               A388                 ADSB   A6-EOB DXB    LHR    EK     
SV897                              A333                 ESTI   HZ-AQA BLR    RUH    SV     
JJ3701                             A320                 ADSB   PR-MBF BSB    CGH    JJ     
SU2694                             A321                 ADSB   VP-BFQ SVO    AMS    SU     
TA433                              A320                 ESTI   N603AV MEX    SAL    TA     
LH2501                             A320                 ADSB   D-AIUW MAN    MUC    LH     
UK817                              A320                 ESTI   VT-TTF DEL    BLR    UK     
D83561                             B738                 ADSB   EI-FVW KRK    CPH    D8     
FR4048                             B738                 ADSB   EI-EMF CPH    AGP    FR     
JL869                              B738                 ADSB   JA317J NRT    PEK    JL     
FIN7TH                             E190                 ESTI   OH-LKL GVA    HEL    AY     
KA361                              A333                 ADSB   B-LBD  DPS    HKG    KA     
AX4716                             E145                 ASDI          ROA    IAD    AX     
BE4415                             E75S                 MLAT   G-FBJH DSA    AMS    BE     
NJE202H                            E55P                 ADSB   CS-PHB                      
DJ23                               B77W                 OCEA   VH-VPH MEL    LAX    DJ     
RJ121                              A320                 ADSB   JY-AYS AMM    TXL    RJ     
5X80                               MD11                 ADSB   N279UP SDF    ANC    5X     
WY645                              B738                 ADSB   A4O-BAAMCT    KWI    WY     
MU583                              B77W                 OCEA   B-2001 PVG    LAX    MU     
BE604                              AT75                 MLAT   EI-REM LPL    IOM    BE     
HBAL087                            BALL                 ADSB   N/A                         
AA203                              B752                 ADSB   N195AN AMS    PHL    AA     
                                   A319                 ADSB   N9002U                      
B6244                              A320                 ESTI   N760JB PBI    EWR    B6     
AIIZ812                            E190                 ADSB   4X-EMB               A2     
T7OKA                              PRM1                 MLAT   T7-OKA                      
FD3394                             A320                 ADSB   HS-BBE DMK    KOP    FD     
MU2396                             A320                 ADSB   B-6929 CKG    NGB    MU     
N4B                                E55P                 ASDI   N4B    APF    FLL           
OS764                              E195                 ADSB   OE-LWH VAR    VIE    OS     
K4368                              B744                 ADSB   N976BA LAX    HNL    K4     
CA734                              A321                 ADSB   B-6885 BKK    HGH    CA     
JJ8160                             A320                 ADSB   PR-MAZ GRU    SCL    JJ     
LH737                              A343                 ADSB   D-AIGU NGO    FRA    LH     
                                                        ADSB                               
HO1273                             A321                 ADSB   B-8068 PVG    NNG    HO     
HV5216                             B738                 ADSB   PH-HXE CTA    AMS    HV     
SU2061                             A320                 ADSB   VP-BZS SOF    SVO    SU     
BA878                              A320                 ADSB   G-EUYM LHR    LED    BA     
Y4756                              A321                 ESTI   XA-VLU MEX    MID    Y4     
CX784                              B77W                 ADSB   B-KPJ  DPS    HKG    CX     
LX242                              A333                 ADSB   HB-JHM ZRH    DXB    LX     
NH803                              B788                 ESTI   JA805A NRT    SIN    NH     
MH190                              A333                 ADSB   9M-MTB KUL    DEL    MH     
NH714                              B738                 ADSB   JA72AN CTS    NGO    NH     
KL1264                             B737                 ADSB   PH-BGP NCE    AMS    KL     
AT822                              B737                 ADSB   CN-ROD CMN    MUC    AT     
TS225                              A310                 ADSB   C-GTSH GLA    YYZ    TS     
KA729                              A333                 ADSB   B-HLA  HKG    KUL    KA     
LH428                              A333                 ADSB   D-AIKJ MUC    CLT    LH     
5X944                              B752                 ADSB   N408UP RFD    OAK    5X     
== 총 6607대의 운행정보를 수신 하였습니다. ==
Written on Thu Jan 25 20:50:03 KST 2018